 treat

 Timestamp is 5245c0d5 (Fri Sep 27 13:31:01 2013)

 Preferred load address is 10000000

 Start         Length     Name                   Class
 0001:00000000 0003cfeeH .text                   CODE
 0002:00000000 00004f13H .rdata                  DATA
 0002:00004f20 000003feH .edata                  DATA
 0003:00000000 00000004H .CRT$XCA                DATA
 0003:00000004 00000004H .CRT$XCZ                DATA
 0003:00000008 00000004H .CRT$XIA                DATA
 0003:0000000c 00000008H .CRT$XIC                DATA
 0003:00000014 00000004H .CRT$XIZ                DATA
 0003:00000018 00000004H .CRT$XPA                DATA
 0003:0000001c 00000004H .CRT$XPX                DATA
 0003:00000020 00000004H .CRT$XPZ                DATA
 0003:00000024 00000004H .CRT$XTA                DATA
 0003:00000028 00000004H .CRT$XTZ                DATA
 0003:00000030 00001cb0H .data                   DATA
 0003:00001ce0 0056fec8H .bss                    DATA
 0004:00000000 00000050H .idata$2                DATA
 0004:00000050 00000014H .idata$3                DATA
 0004:00000064 00000188H .idata$4                DATA
 0004:000001ec 00000188H .idata$5                DATA
 0004:00000374 000006c8H .idata$6                DATA

  Address         Publics by Value              Rva+Base     Lib:Object

 0001:00000000       _Add                       10001000 f   Add.obj
 0001:00000030       _AddA                      10001030 f   Add.obj
 0001:00000350       _AddNewBBe                 10001350 f   addnewbbe.obj
 0001:000003e0       _AddQIndex                 100013e0 f   AddQIndex.obj
 0001:00000420       _AddToEventQ               10001420 f   AddToEventQ.obj
 0001:00000530       _AddtoRegimen              10001530 f   AddtoRegimen.obj
 0001:000005d0       _AddtoRegimenA             100015d0 f   AddtoRegimen.obj
 0001:00000660       _And                       10001660 f   And.obj
 0001:00000690       _AndA                      10001690 f   And.obj
 0001:00000a90       _ApplyContinDrug           10001a90 f   ApplyContinDrug.obj
 0001:00000ab0       _ApplyContinDrugA          10001ab0 f   ApplyContinDrug.obj
 0001:00000b50       _ApplyRegimenIntoSchedule  10001b50 f   ApplyRegimen.obj
 0001:00000b80       _ApplyRegimenIntoScheduleA 10001b80 f   ApplyRegimen.obj
 0001:000010b0       _ApplyRules@4              100020b0 f   Applyrul.obj
 0001:00001140       _ApplyTrialSched           10002140 f   ApplyTrialSched.obj
 0001:000015b0       _power                     100025b0 f   ariths.obj
 0001:00001600       _tiny                      10002600 f   ariths.obj
 0001:00001640       _logten                    10002640 f   ariths.obj
 0001:000016c0       _expo                      100026c0 f   ariths.obj
 0001:00001700       _sgn                       10002700 f   ariths.obj
 0001:00001750       _buildkill                 10002750 f   buildkill.obj
 0001:00001a60       _buildsched                10002a60 f   buildsche.obj
 0001:00001bf0       _CalculateTimeKillSurv     10002bf0 f   CalculateTimeKillSurv.obj
 0001:00001f40       _cellcount                 10002f40 f   cellcount.obj
 0001:00002150       _s2wrapper@16              10003150 f   cellp.obj
 0001:00002230       _NextPBin                  10003230 f   cellp.obj
 0001:00002a60       _Update_CN_NGomp           10003a60 f   cellp.obj
 0001:00002be0       _cellp                     10003be0 f   cellp.obj
 0001:00003330       _d_is_zero                 10004330 f   cellp.obj
 0001:00003370       _printvalue                10004370 f   cellp.obj
 0001:00003480       _compute_para              10004480 f   cellp.obj
 0001:000034d0       _compute_probability       100044d0 f   cellp.obj
 0001:000036f0       _Setup_Probability         100046f0 f   cellp.obj
 0001:00003a80       _Setup_Gompertzian         10004a80 f   cellp.obj
 0001:00003cc0       _inv_log_gp                10004cc0 f   cellp.obj
 0001:00003db0       _GetGompcn                 10004db0 f   cellp.obj
 0001:00003eb0       _SetGompRuleIndex          10004eb0 f   cellp.obj
 0001:00003f70       _Update_Gompertzian        10004f70 f   cellp.obj
 0001:000045e0       _GetGompRuleIndex          100055e0 f   cellp.obj
 0001:00004680       _is_match_control_level    10005680 f   cellp.obj
 0001:00004750       _GetSumGompLevel           10005750 f   cellp.obj
 0001:00004880       _sumcellbylevel@8          10005880 f   cellp.obj
 0001:00004970       _sumcellbycontrolgroup     10005970 f   cellp.obj
 0001:00004b50       _intersectionindices       10005b50 f   cellp.obj
 0001:00004c50       _AllCells                  10005c50 f   cellp.obj
 0001:00004cc0       _IsGompOverFlow            10005cc0 f   cellp.obj
 0001:00004d60       _alloc_gomp                10005d60 f   cellp.obj
 0001:00004e10       _OrganMetGroup             10005e10 f   cellp.obj
 0001:000050f0       _OrganMet                  100060f0 f   cellp.obj
 0001:00005150       _Gomp_UpdateTime           10006150 f   cellp.obj
 0001:000054b0       _CheckBBRules              100064b0 f   CheckBBRules.obj
 0001:00005500       _CheckEnv                  10006500 f   CheckEnv.obj
 0001:00005560       _check_events              10006560 f   checkevents.obj
 0001:000061d0       _CheckForTox               100071d0 f   CheckForTox.obj
 0001:00006960       _logit                     10007960 f   CheckForTox.obj
 0001:00006990       _antilogit                 10007990 f   CheckForTox.obj
 0001:000069d0       _CheckForTreatment         100079d0 f   CheckForTreatment.obj
 0001:00006c70       _CheckGuaranteeTime        10007c70 f   CheckGuaranteeTime.obj
 0001:00006d50       _CheckIfICRuleApplies      10007d50 f   CheckIfICRuleApplies.obj
 0001:00006f60       _DoesICRuleAppliesToCelltype 10007f60 f   CheckIfICRuleApplies.obj
 0001:00007050       _CheckIfICRuleAppliesPGF   10008050 f   CheckIfICRuleAppliesPGF.obj
 0001:000071f0       _CheckOrExecClause         100081f0 f   CheckOrExecClause.obj
 0001:00007290       _CheckRule                 10008290 f   CheckRule.obj
 0001:00007330       _ClearBBE                  10008330 f   clearbbe.obj
 0001:000073f0       _ClearBBRegimen            100083f0 f   ClearBBRegimen.obj
 0001:000074a0       _ClearBlackBoard           100084a0 f   clearblackboard.obj
 0001:00007510       _ClearRules@0              10008510 f   ClearRules.obj
 0001:000075a0       _ClearTempBB               100085a0 f   ClearTempBB.obj
 0001:00007660       _Comp                      10008660 f   Comp.obj
 0001:00007ab0       _CompI                     10008ab0 f   Comp.obj
 0001:00007c00       _CompD                     10008c00 f   Comp.obj
 0001:00007e00       _is_newcelltype            10008e00 f   CreateParaStruct.obj
 0001:00007ef0       _GetTabelSize              10008ef0 f   CreateParaStruct.obj
 0001:00007f90       _setup_para                10008f90 f   CreateParaStruct.obj
 0001:000080c0       _getcelltype               100090c0 f   CreateParaStruct.obj
 0001:000081d0       _allocate_mem              100091d0 f   CreateParaStruct.obj
 0001:000084f0       _IsOverFlow                100094f0 f   CreateParaStruct.obj
 0001:00008720       _create_para_struct        10009720 f   CreateParaStruct.obj
 0001:00008a10       _fill_para                 10009a10 f   CreateParaStruct.obj
 0001:00008ad0       _release_mem               10009ad0 f   CreateParaStruct.obj
 0001:00008ef0       _getcellcounts             10009ef0 f   CreateParaStruct.obj
 0001:00008f90       _getcellindex              10009f90 f   CreateParaStruct.obj
 0001:00008fe0       _binsearch                 10009fe0 f   CreateParaStruct.obj
 0001:00009070       _insert_element            1000a070 f   CreateParaStruct.obj
 0001:00009200       _alloc_gompsum             1000a200 f   CreateParaStruct.obj
 0001:000092d0       _IsGompSumOverFlow         1000a2d0 f   CreateParaStruct.obj
 0001:000093c0       _sort_lookuptable          1000a3c0 f   CreateParaStruct.obj
 0001:00009440       _truncate                  1000a440 f   dround.obj
 0001:00009470       _dround                    1000a470 f   dround.obj
 0001:000094c0       _Eq                        1000a4c0 f   Eq.obj
 0001:00009500       _ApplySchedule@8           1000a500 f   evalshed.obj
 0001:00009580       _evaluate_schedule         1000a580 f   evalshed.obj
 0001:00009770       _GenerateInitCellCount     1000a770 f   GenerateInitCellCount.obj
 0001:00009840       _getenvir                  1000a840 f   getenvir.obj
 0001:00009890       _GetFunctionPtr            1000a890 f   GetFunctionPtr.obj
 0001:000099d0       _fgetstring                1000a9d0 f   getstring.obj
 0001:00009a90       _getstring                 1000aa90 f   getstring.obj
 0001:00009b50       _rand01                    1000ab50 f   grand.obj
 0001:00009b80       _ranrmarin                 1000ab80 f   grand.obj
 0001:00009d90       _ranmarm0                  1000ad90 f   grand.obj
 0001:00009f90       _ranmarm                   1000af90 f   grand.obj
 0001:0000a020       _gbinomi                   1000b020 f   grand.obj
 0001:0000aa90       _gnorm0                    1000ba90 f   grand.obj
 0001:0000aba0       _gnorm                     1000bba0 f   grand.obj
 0001:0000abf0       _sqrtp_uniform             1000bbf0 f   grand.obj
 0001:0000ac60       _grand_b_n                 1000bc60 f   grand.obj
 0001:0000ae10       _Gt                        1000be10 f   Gt.obj
 0001:0000ae50       _Gte                       1000be50 f   Gte.obj
 0001:0000ae90       _incondition               1000be90 f   incondition.obj
 0001:0000af50       _IncrementActionClause@4   1000bf50 f   IncrementActionClause.obj
 0001:0000afb0       _IncrementIFClause@4       1000bfb0 f   IncrementIFClause.obj
 0001:0000b010       _IncrementRule@0           1000c010 f   IncrementRule.obj
 0001:0000b050       _infile                    1000c050 f   infile.obj
 0001:0000bd90       _InitDoseFactor@0          1000cd90 f   InitDoseFactor.obj
 0001:0000be10       _InitNextToxTime           1000ce10 f   InitNextToxTime.obj
 0001:0000bf30       _InitToxTypes              1000cf30 f   InitTox.obj
 0001:0000c260       _vector                    1000d260 f   integration.obj
 0001:0000c2c0       _free_vector               1000d2c0 f   integration.obj
 0001:0000c2f0       _polint                    1000d2f0 f   integration.obj
 0001:0000c540       _trapzd                    1000d540 f   integration.obj
 0001:0000c680       _pgfint                    1000d680 f   integration.obj
 0001:0000c7f0       _InterpretEvents           1000d7f0 f   InterpretEvents.obj
 0001:0000d310       _AddToDoseModList          1000e310 f   InterpretEvents.obj
 0001:0000d360       _GetCurrCTTreatment        1000e360 f   InterpretEvents.obj
 0001:0000d3d0       _Do_jointpgf@4             1000e3d0 f   jointpgf.obj
 0001:0000d4f0       _jointpgf                  1000e4f0 f   jointpgf.obj
 0001:0000d660       _InitPgf@0                 1000e660 f   jointpgf.obj
 0001:0000d6c0       _FinishPgf@0               1000e6c0 f   jointpgf.obj
 0001:0000d710       _jpgfcond                  1000e710 f   jpgfcond.obj
 0001:0000d8c0       _jpgfen                    1000e8c0 f   jpgfen.obj
 0001:0000d9a0       _pgf_lognormal             1000e9a0 f   jpgfen.obj
 0001:0000dad0       _jpgfen_rand               1000ead0 f   jpgfen.obj
 0001:0000dbb0       _jpgfit                    1000ebb0 f   jpgfit.obj
 0001:0000e280       _jpgfstep                  1000f280 f   jpgfstep.obj
 0001:0000e370       _lognorm                   1000f370 f   lognorm.obj
 0001:0000e3b0       _Lookup                    1000f3b0 f   lookup.obj
 0001:0000e400       _Lt                        1000f400 f   Lt.obj
 0001:0000e440       _Lte                       1000f440 f   Lte.obj
 0001:0000e480       _makeoutfile@4             1000f480 f   makeoutfile.obj
 0001:0000e4b0       _MsgBoxBreak               1000f4b0 f   messages.obj
 0001:0000e610       _MsgBoxDoubleValue         1000f610 f   messages.obj
 0001:0000e690       _MsgBoxWarning             1000f690 f   messages.obj
 0001:0000e6f0       _MsgBoxError               1000f6f0 f   messages.obj
 0001:0000e770       _MultiSim                  1000f770 f   MultiSim.obj
 0001:0000ea60       _ncells                    1000fa60 f   ncells.obj
 0001:0000ea90       _Ne                        1000fa90 f   Ne.obj
 0001:0000ead0       _nlogs                     1000fad0 f   nlogs.obj
 0001:0000eb10       _norm                      1000fb10 f   norm.obj
 0001:0000ebe0       _Now                       1000fbe0 f   now.obj
 0001:0000ec00       _NowA                      1000fc00 f   now.obj
 0001:0000ec70       _outfile                   1000fc70 f   outfile.obj
 0001:0000f9c0       _ParseSchedule             100109c0 f   ParseSchedule.obj
 0001:0000fc60       _pgf1                      10010c60 f   pgf1.pure.obj
 0001:00010660       _eq10                      10011660 f   pgf1.pure.obj
 0001:000107d0       _pgfintold                 100117d0 f   pgfint.obj
 0001:000108f0       _kern                      100118f0 f   pgfint.obj
 0001:00010980       _DllMain@12                10011980 f   pgfmain.obj
 0001:00010be0       _DoPgf@0                   10011be0 f   pgfmain.obj
 0001:00010c80       _pgfxcm                    10011c80 f   pgfxcm.obj
 0001:000111a0       _phaseii_simon@36          100121a0 f   phaseii.obj
 0001:00011870       _compute_nmin              10012870 f   phaseii.obj
 0001:00011920       _get_z_factor              10012920 f   phaseii.obj
 0001:000119c0       _compute_FUN               100129c0 f   phaseii.obj
 0001:00011b10       _comp_cumu_binomial        10012b10 f   phaseii.obj
 0001:00011bb0       _setupPlotHandler@0        10012bb0 f   PlotHandler.obj
 0001:00012070       _PlotHandler               10013070 f   PlotHandler.obj
 0001:00012460       _getCellLevelbyClassforPlotting@8 10013460 f   PlotHandler.obj
 0001:00012540       _poidev                    10013540 f   pois_rep.obj
 0001:00012740       _gammln                    10013740 f   pois_rep.obj
 0001:00012810       _printrulestofile@0        10013810 f   printrulestofile.obj
 0001:000129b0       _printclause               100139b0 f   printrulestofile.obj
 0001:00012a10       _nargsoffcn                10013a10 f   printrulestofile.obj
 0001:00012b30       _fcnname                   10013b30 f   printrulestofile.obj
 0001:00012d80       _printargs                 10013d80 f   printrulestofile.obj
 0001:000131c0       _probeprob                 100141c0 f   probeprob.obj
 0001:000132d0       _probzeros                 100142d0 f   probzeros.obj
 0001:00013500       _RandLogNorm               10014500 f   RandLogNorm.obj
 0001:00013530       _RandLogNormA              10014530 f   RandLogNorm.obj
 0001:00013770       _read_rule_file            10014770 f   Readrul.obj
 0001:00013970       _is_assignment             10014970 f   Readrul.obj
 0001:000139c0       _clear_base_model          100149c0 f   Readrul.obj
 0001:00013b80       _display_summary           10014b80 f   Readrul.obj
 0001:00013db0       _get_macro_levelname       10014db0 f   Readrul.obj
 0001:00013e70       _construct_type_name       10014e70 f   Readrul.obj
 0001:00014080       _construct_cell_type_names 10015080 f   Readrul.obj
 0001:000142b0       _initialize_growth_rates   100152b0 f   Readrul.obj
 0001:00014480       _pickcelltypes             10015480 f   Readrul.obj
 0001:000145a0       _get_dest_gap              100155a0 f   Readrul.obj
 0001:000145d0       _find_mincyctime           100155d0 f   Readrul.obj
 0001:00014710       _change_kinarray_switch    10015710 f   Readrul.obj
 0001:00014760       _change_kinarray_value_1   10015760 f   Readrul.obj
 0001:000147c0       _change_kinarray_value_all 100157c0 f   Readrul.obj
 0001:00014930       _change_kinarray_value_2   10015930 f   Readrul.obj
 0001:00014c70       _change_value              10015c70 f   Readrul.obj
 0001:00014d50       _change_kill_rates         10015d50 f   Readrul.obj
 0001:00014e20       _getdrugindex              10015e20 f   Readrul.obj
 0001:00014e90       _change_gomp_param         10015e90 f   Readrul.obj
 0001:00014f80       _evaluate_store_rule       10015f80 f   Readrul.obj
 0001:00015690       _getlookupid               10016690 f   Readrul.obj
 0001:00015740       _build_migid               10016740 f   Readrul.obj
 0001:00015960       _cal_pre_post_prod         10016960 f   Readrul.obj
 0001:00015a00       _ApplyThisRule             10016a00 f   Readrul.obj
 0001:00015f20       _getallmigrate             10016f20 f   Readrul.obj
 0001:00016070       _CountThisRule             10017070 f   Readrul.obj
 0001:00016210       _read_into_temp            10017210 f   Readrul.obj
 0001:00016240       _read_to_eol               10017240 f   Readrul.obj
 0001:00016270       _lookupKey                 10017270 f   Readrul.obj
 0001:000162c0       _init_rule                 100172c0 f   Readrul.obj
 0001:00016460       _read_nomacro_rule         10017460 f   Readrul.obj
 0001:000164b0       _expand_macro_rule         100174b0 f   Readrul.obj
 0001:00016700       _parse_base_model          10017700 f   Readrul.obj
 0001:00017170       _fill_clevel               10018170 f   Readrul.obj
 0001:000173f0       _fill_env                  100183f0 f   Readrul.obj
 0001:00017520       _fill_env_gr               10018520 f   Readrul.obj
 0001:00017640       _sort_rules                10018640 f   Readrul.obj
 0001:00017710       _swap                      10018710 f   Readrul.obj
 0001:000177a0       _is_match_level            100187a0 f   Readrul.obj
 0001:00017990       _is_match_env              10018990 f   Readrul.obj
 0001:000179f0       _flush_line                100189f0 f   Readrul.obj
 0001:00017a40       _getcellindices            10018a40 f   Readrul.obj
 0001:00017af0       _getcelllevelbyclass       10018af0 f   Readrul.obj
 0001:00017b80       _getlocationclass          10018b80 f   Readrul.obj
 0001:00017bd0       _copy_environment          10018bd0 f   Readrul.obj
 0001:000184e0       _ResetEnvir@0              100194e0 f   Readrul.obj
 0001:00018540       _sort_envlist              10019540 f   Readrul.obj
 0001:00018660       _SetEnvir@20               10019660 f   Readrul.obj
 0001:000187c0       _is_operator               100197c0 f   Readrul.obj
 0001:00018800       _get_ntypes                10019800 f   Readrul.obj
 0001:00018850       _parse_class_level_other   10019850 f   Readrul.obj
 0001:00018a30       _parse_general_rule        10019a30 f   Readrul.obj
 0001:00018df0       _fillclasslevel            10019df0 f   Readrul.obj
 0001:00018f40       _unix_strlwr               10019f40 f   Readrul.obj
 0001:00018fa0       _unix_strupr               10019fa0 f   Readrul.obj
 0001:00019000       _CheckIfThereIsClass       1001a000 f   Readrul.obj
 0001:00019110       _fillclassID               1001a110 f   Readrul.obj
 0001:000191a0       _realprompt                1001a1a0 f   realprompt.obj
 0001:00019220       _SetHomeDir                1001a220 f   registry.obj
 0001:000192d0       _RegQueryStringValue       1001a2d0 f   registry.obj
 0001:00019340       _SetVersion                1001a340 f   registry.obj
 0001:000194b0       _RemoveContinDrug          1001a4b0 f   RemoveContinDrug.obj
 0001:000194e0       _RemoveTreatments          1001a4e0 f   RemoveTreatments.obj
 0001:00019590       _ResetBBEveryDeltaT        1001a590 f   ResetBBEveryDeltaT.obj
 0001:00019610       _ResetCellP@0              1001a610 f   ResetCellP.obj
 0001:00019660       _ResetCellQ@4              1001a660 f   ResetCellQ.obj
 0001:000196b0       _reset_events              1001a6b0 f   resetevents.obj
 0001:000196d0       _reset_sim                 1001a6d0 f   resetevents.obj
 0001:00019920       _ResetMultiCellP@0         1001a920 f   ResetMultiCellP.obj
 0001:00019970       _SendArgsI@20              1001a970 f   SendArgs.obj
 0001:00019a20       _SendArgsB@20              1001aa20 f   SendArgs.obj
 0001:00019ad0       _SendArgsD@24              1001aad0 f   SendArgs.obj
 0001:00019b90       _SendArgsC@20              1001ab90 f   SendArgs.obj
 0001:00019c60       _SendFunction@16           1001ac60 f   SendFunction.obj
 0001:00019d00       _Set                       1001ad00 f   Set.obj
 0001:00019d30       _SetA                      1001ad30 f   Set.obj
 0001:00019e20       _SetB                      1001ae20 f   SetB.obj
 0001:00019e50       _SetBA                     1001ae50 f   SetB.obj
 0001:00019eb0       _SetBBForPatient           1001aeb0 f   SetBBForPatient.obj
 0001:00019fe0       _SetBBFromEvents           1001afe0 f   SetBBFromEvents.obj
 0001:0001a030       _SetD                      1001b030 f   SetD.obj
 0001:0001a070       _SetDA                     1001b070 f   SetD.obj
 0001:0001a0d0       _SetI                      1001b0d0 f   SetI.obj
 0001:0001a100       _SetIA                     1001b100 f   SetI.obj
 0001:0001a160       _setInitialCellCounts      1001b160 f   setInitialCellCounts.obj
 0001:0001a340       _distribute_cell           1001b340 f   setInitialCellCounts.obj
 0001:0001a490       _setmem                    1001b490 f   setmem.obj
 0001:0001a4e0       _setrates                  1001b4e0 f   setrates.obj
 0001:0001ab50       _SetSpeed@4                1001bb50 f   SetSpeed.obj
 0001:0001aba0       _SingleCellp               1001bba0 f   SingleCellp.obj
 0001:0001abc0       _sortsched                 1001bbc0 f   sortsched.obj
 0001:0001ad90       _is_a_substring            1001bd90 f   strings.obj
 0001:0001aeb0       _read_line                 1001beb0 f   strings.obj
 0001:0001af40       _read_word                 1001bf40 f   strings.obj
 0001:0001afd0       _eprint                    1001bfd0 f   strings.obj
 0001:0001b000       _wprint                    1001c000 f   strings.obj
 0001:0001b030       _skip_blanks               1001c030 f   strings.obj
 0001:0001b080       _is_white                  1001c080 f   strings.obj
 0001:0001b0c0       _skip_white                1001c0c0 f   strings.obj
 0001:0001b110       _chopword                  1001c110 f   strings.obj
 0001:0001b1e0       _getword                   1001c1e0 f   strings.obj
 0001:0001b290       _fSread                    1001c290 f   strings.obj
 0001:0001b2f0       _ThreadedCellP@124         1001c2f0 f   ThdCellp.obj
 0001:0001b720       _ThreadedMultiCellP@100    1001c720 f   ThdMultiCellP.obj
 0001:0001b8f0       _timecourse                1001c8f0 f   timecours.obj
 0001:0001c010       _Do_Timecourse@4           1001d010 f   timecours.obj
 0001:0001c130       _TreatmentExists           1001d130 f   TreatmentExists.obj
 0001:0001c200       _TreatmentExistsInt        1001d200 f   TreatmentExistsInt.obj
 0001:0001c2f0       _typeconds                 1001d2f0 f   typeconds.obj
 0001:0001c470       _typemask                  1001d470 f   typemask.obj
 0001:0001c510       _typestring                1001d510 f   typestrin.obj
 0001:0001c540       _typevec                   1001d540 f   typevec.obj
 0001:0001c620       _peekd@16                  1001d620 f   vbc.obj
 0001:0001ca70       _poked@36                  1001da70 f   vbc.obj
 0001:0001d210       _pokedosefactor@28         1001e210 f   vbc.obj
 0001:0001d280       _cside_pdf                 1001e280 f   vbc.obj
 0001:0001d380       _CTChangeAllDoses@12       1001e380 f   vbc.obj
 0001:0001d440       _peekdfatanytime@8         1001e440 f   vbc.obj
 0001:0001d4d0       _peekdosefactor@12         1001e4d0 f   vbc.obj
 0001:0001d570       _peeki@16                  1001e570 f   vbc.obj
 0001:0001d7f0       _pokei@36                  1001e7f0 f   vbc.obj
 0001:0001e2b0       _peekc@16                  1001f2b0 f   vbc.obj
 0001:0001e540       _pokec@32                  1001f540 f   vbc.obj
 0001:0001e9b0       _printvaluec               1001f9b0 f   vbc.obj
 0001:0001ea60       _gettime                   1001fa60 f   vbc.obj
 0001:0001eac0       _Sleep@4                   1001fac0 f   kernel32:KERNEL32.dll
 0001:0001eac6       _GetEnvironmentVariableA@12 1001fac6 f   kernel32:KERNEL32.dll
 0001:0001eacc       _InterlockedExchange@8     1001facc f   kernel32:KERNEL32.dll
 0001:0001ead2       _MessageBoxA@16            1001fad2 f   user32:USER32.dll
 0001:0001ead8       _RegCloseKey@4             1001fad8 f   advapi32:ADVAPI32.dll
 0001:0001eade       _RegOpenKeyExA@20          1001fade f   advapi32:ADVAPI32.dll
 0001:0001eae4       _RegQueryValueExA@24       1001fae4 f   advapi32:ADVAPI32.dll
 0001:0001eaea       _SysAllocStringByteLen@8   1001faea f   oleaut32:OLEAUT32.dll
 0001:0001eaf0       _memcpy                    1001faf0 f   LIBCMTD:memcpy.obj
 0001:0001ee30       _strcpy                    1001fe30 f   LIBCMTD:strcat.obj
 0001:0001ee40       _strcat                    1001fe40 f   LIBCMTD:strcat.obj
 0001:0001ef20       _malloc                    1001ff20 f   LIBCMTD:dbgheap.obj
 0001:0001ef40       __malloc_dbg               1001ff40 f   LIBCMTD:dbgheap.obj
 0001:0001ef70       __nh_malloc                1001ff70 f   LIBCMTD:dbgheap.obj
 0001:0001ef90       __nh_malloc_dbg            1001ff90 f   LIBCMTD:dbgheap.obj
 0001:0001eff0       __heap_alloc               1001fff0 f   LIBCMTD:dbgheap.obj
 0001:0001f010       __heap_alloc_dbg           10020010 f   LIBCMTD:dbgheap.obj
 0001:0001f330       _calloc                    10020330 f   LIBCMTD:dbgheap.obj
 0001:0001f350       __calloc_dbg               10020350 f   LIBCMTD:dbgheap.obj
 0001:0001f3b0       _realloc                   100203b0 f   LIBCMTD:dbgheap.obj
 0001:0001f3d0       __realloc_dbg              100203d0 f   LIBCMTD:dbgheap.obj
 0001:0001f930       __expand                   10020930 f   LIBCMTD:dbgheap.obj
 0001:0001f950       __expand_dbg               10020950 f   LIBCMTD:dbgheap.obj
 0001:0001f990       _free                      10020990 f   LIBCMTD:dbgheap.obj
 0001:0001f9b0       __free_lk                  100209b0 f   LIBCMTD:dbgheap.obj
 0001:0001f9d0       __free_dbg                 100209d0 f   LIBCMTD:dbgheap.obj
 0001:0001fa00       __free_dbg_lk              10020a00 f   LIBCMTD:dbgheap.obj
 0001:0001fdf0       __msize                    10020df0 f   LIBCMTD:dbgheap.obj
 0001:0001fe10       __msize_dbg                10020e10 f   LIBCMTD:dbgheap.obj
 0001:0001ff70       __CrtSetBreakAlloc         10020f70 f   LIBCMTD:dbgheap.obj
 0001:0001ff90       __CrtSetDbgBlockType       10020f90 f   LIBCMTD:dbgheap.obj
 0001:00020030       __CrtSetAllocHook          10021030 f   LIBCMTD:dbgheap.obj
 0001:000200e0       __CrtCheckMemory           100210e0 f   LIBCMTD:dbgheap.obj
 0001:00020450       __CrtSetDbgFlag            10021450 f   LIBCMTD:dbgheap.obj
 0001:00020480       __CrtDoForAllClientObjects 10021480 f   LIBCMTD:dbgheap.obj
 0001:000204f0       __CrtIsValidPointer        100214f0 f   LIBCMTD:dbgheap.obj
 0001:00020540       __CrtIsValidHeapPointer    10021540 f   LIBCMTD:dbgheap.obj
 0001:000205d0       __CrtIsMemoryBlock         100215d0 f   LIBCMTD:dbgheap.obj
 0001:000206c0       __CrtSetDumpClient         100216c0 f   LIBCMTD:dbgheap.obj
 0001:000206e0       __CrtMemCheckpoint         100216e0 f   LIBCMTD:dbgheap.obj
 0001:00020850       __CrtMemDifference         10021850 f   LIBCMTD:dbgheap.obj
 0001:00020980       __CrtMemDumpAllObjectsSince 10021980 f   LIBCMTD:dbgheap.obj
 0001:00020d60       __CrtDumpMemoryLeaks       10021d60 f   LIBCMTD:dbgheap.obj
 0001:00020de0       __CrtMemDumpStatistics     10021de0 f   LIBCMTD:dbgheap.obj
 0001:00020eb0       __fpmath                   10021eb0 f   LIBCMTD:fpinit.obj
 0001:00020ee0       __fpclear                  10021ee0 f   LIBCMTD:fpinit.obj
 0001:00020ef0       __cfltcvt_init             10021ef0 f   LIBCMTD:fpinit.obj
 0001:00020f40       ___setfflag                10021f40 f   LIBCMTD:fpinit.obj
 0001:00020f60       _strlen                    10021f60 f   LIBCMTD:strlen.obj
 0001:00020fe0       _strcmp                    10021fe0 f   LIBCMTD:strcmp.obj
 0001:00021070       _fprintf                   10022070 f   LIBCMTD:fprintf.obj
 0001:00021140       _sprintf                   10022140 f   LIBCMTD:sprintf.obj
 0001:00021240       __alloca_probe             10022240 f   LIBCMTD:chkstk.obj
 0001:00021240       __chkstk                   10022240 f   LIBCMTD:chkstk.obj
 0001:00021270       __ftol                     10022270 f   LIBCMTD:ftol.obj
 0001:000212a0       __CIlog                    100222a0 f   LIBCMTD:log.obj
 0001:000212b4       _log                       100222b4 f   LIBCMTD:log.obj
 0001:00021370       _exp                       10022370 f   LIBCMTD:87ctran.obj
 0001:0002137a       __CIexp                    1002237a f   LIBCMTD:87ctran.obj
 0001:00021390       _fabs                      10022390 f   LIBCMTD:fabs.obj
 0001:00021490       _labs                      10022490 f   LIBCMTD:labs.obj
 0001:000214c0       __CIpow                    100224c0 f   LIBCMTD:pow.obj
 0001:000214d9       _pow                       100224d9 f   LIBCMTD:pow.obj
 0001:000216e0       _modf                      100226e0 f   LIBCMTD:modf.obj
 0001:00021870       _atof                      10022870 f   LIBCMTD:atof.obj
 0001:000218f0       __toupper                  100228f0 f   LIBCMTD:toupper.obj
 0001:00021900       _toupper                   10022900 f   LIBCMTD:toupper.obj
 0001:000219a0       __toupper_lk               100229a0 f   LIBCMTD:toupper.obj
 0001:00021ad0       _floor                     10022ad0 f   LIBCMTD:floor.obj
 0001:00021c10       _ungetc                    10022c10 f   LIBCMTD:ungetc.obj
 0001:00021c80       __ungetc_lk                10022c80 f   LIBCMTD:ungetc.obj
 0001:00021dc0       _fgetc                     10022dc0 f   LIBCMTD:fgetc.obj
 0001:00021e70       _getc                      10022e70 f   LIBCMTD:fgetc.obj
 0001:00021e90       ___initstdio               10022e90 f   LIBCMTD:_file.obj
 0001:00021fc0       ___endstdio                10022fc0 f   LIBCMTD:_file.obj
 0001:00021fe0       __lock_file                10022fe0 f   LIBCMTD:_file.obj
 0001:00022020       __lock_file2               10023020 f   LIBCMTD:_file.obj
 0001:00022050       __unlock_file              10023050 f   LIBCMTD:_file.obj
 0001:00022090       __unlock_file2             10023090 f   LIBCMTD:_file.obj
 0001:000220c0       _srand                     100230c0 f   LIBCMTD:rand.obj
 0001:000220d0       _rand                      100230d0 f   LIBCMTD:rand.obj
 0001:00022110       __cinit                    10023110 f   LIBCMTD:crt0dat.obj
 0001:00022150       _exit                      10023150 f   LIBCMTD:crt0dat.obj
 0001:00022170       __exit                     10023170 f   LIBCMTD:crt0dat.obj
 0001:00022190       __cexit                    10023190 f   LIBCMTD:crt0dat.obj
 0001:000221b0       __c_exit                   100231b0 f   LIBCMTD:crt0dat.obj
 0001:000222c0       __lockexit                 100232c0 f   LIBCMTD:crt0dat.obj
 0001:000222d0       __unlockexit               100232d0 f   LIBCMTD:crt0dat.obj
 0001:00022310       __statusfp                 10023310 f   LIBCMTD:ieee87.obj
 0001:00022330       __clearfp                  10023330 f   LIBCMTD:ieee87.obj
 0001:00022350       __control87                10023350 f   LIBCMTD:ieee87.obj
 0001:000223a0       __controlfp                100233a0 f   LIBCMTD:ieee87.obj
 0001:000223c0       __fpreset                  100233c0 f   LIBCMTD:ieee87.obj
 0001:000227b0       __CIsqrt                   100237b0 f   LIBCMTD:sqrt.obj
 0001:000227c4       _sqrt                      100237c4 f   LIBCMTD:sqrt.obj
 0001:00022870       _fscanf                    10023870 f   LIBCMTD:fscanf.obj
 0001:00022910       _printf                    10023910 f   LIBCMTD:printf.obj
 0001:000229b0       __strupr                   100239b0 f   LIBCMTD:strupr.obj
 0001:00022b70       _atol                      10023b70 f   LIBCMTD:atox.obj
 0001:00022c70       _atoi                      10023c70 f   LIBCMTD:atox.obj
 0001:00022c90       __atoi64                   10023c90 f   LIBCMTD:atox.obj
 0001:00022dc0       __CrtDbgBreak              10023dc0 f   LIBCMTD:dbgrpt.obj
 0001:00022dd0       __CrtSetReportMode         10023dd0 f   LIBCMTD:dbgrpt.obj
 0001:00022e30       __CrtSetReportFile         10023e30 f   LIBCMTD:dbgrpt.obj
 0001:00022eb0       __CrtSetReportHook         10023eb0 f   LIBCMTD:dbgrpt.obj
 0001:00022ed0       __CrtDbgReport             10023ed0 f   LIBCMTD:dbgrpt.obj
 0001:00023570       _strncat                   10024570 f   LIBCMTD:strncat.obj
 0001:000236a0       _fclose                    100246a0 f   LIBCMTD:fclose.obj
 0001:00023730       __fclose_lk                10024730 f   LIBCMTD:fclose.obj
 0001:000237f0       __fsopen                   100247f0 f   LIBCMTD:fopen.obj
 0001:000238f0       _fopen                     100248f0 f   LIBCMTD:fopen.obj
 0001:00023910       _time                      10024910 f   LIBCMTD:time.obj
 0001:00023aa0       __CIsin                    10024aa0 f   LIBCMTD:sin.obj
 0001:00023ab4       _sin                       10024ab4 f   LIBCMTD:sin.obj
 0001:00023b50       __CIcos                    10024b50 f   LIBCMTD:cos.obj
 0001:00023b64       _cos                       10024b64 f   LIBCMTD:cos.obj
 0001:00023c00       __CItan                    10024c00 f   LIBCMTD:tan.obj
 0001:00023c14       _tan                       10024c14 f   LIBCMTD:tan.obj
 0001:00023cc0       __itoa                     10024cc0 f   LIBCMTD:xtoa.obj
 0001:00023de0       __ltoa                     10024de0 f   LIBCMTD:xtoa.obj
 0001:00023e20       __ultoa                    10024e20 f   LIBCMTD:xtoa.obj
 0001:00023e40       __i64toa                   10024e40 f   LIBCMTD:xtoa.obj
 0001:00023f90       __ui64toa                  10024f90 f   LIBCMTD:xtoa.obj
 0001:00023fb0       _fread                     10024fb0 f   LIBCMTD:fread.obj
 0001:00023ff0       __fread_lk                 10024ff0 f   LIBCMTD:fread.obj
 0001:000241c0       _perror                    100251c0 f   LIBCMTD:perror.obj
 0001:000242a0       __stricmp                  100252a0 f   LIBCMTD:stricmp.obj
 0001:000242a0       _strcmpi                   100252a0 f   LIBCMTD:stricmp.obj
 0001:000242a0       __strcmpi                  100252a0 f   LIBCMTD:stricmp.obj
 0001:000242a0       _stricmp                   100252a0 f   LIBCMTD:stricmp.obj
 0001:00024370       _strncpy                   10025370 f   LIBCMTD:strncpy.obj
 0001:00024470       _strstr                    10025470 f   LIBCMTD:strstr.obj
 0001:00024500       _strchr                    10025500 f   LIBCMTD:strchr.obj
 0001:00024506       ___from_strstr_to_strchr   10025506 f   LIBCMTD:strchr.obj
 0001:000245c0       __tolower                  100255c0 f   LIBCMTD:tolower.obj
 0001:000245d0       _tolower                   100255d0 f   LIBCMTD:tolower.obj
 0001:00024670       __tolower_lk               10025670 f   LIBCMTD:tolower.obj
 0001:000247a0       _scanf                     100257a0 f   LIBCMTD:scanf.obj
 0001:00024820       _strcspn                   10025820 f   LIBCMTD:strcspn.obj
 0001:00024860       _fflush                    10025860 f   LIBCMTD:fflush.obj
 0001:000248b0       __fflush_lk                100258b0 f   LIBCMTD:fflush.obj
 0001:00024900       __flush                    10025900 f   LIBCMTD:fflush.obj
 0001:000249c0       __flushall                 100259c0 f   LIBCMTD:fflush.obj
 0001:00024b10       _asctime                   10025b10 f   LIBCMTD:asctime.obj
 0001:00024d10       _localtime                 10025d10 f   LIBCMTD:localtim.obj
 0001:00024f70       __CRT_INIT@12              10025f70 f   LIBCMTD:dllcrt0.obj
 0001:000250b0       __DllMainCRTStartup@12     100260b0 f   LIBCMTD:dllcrt0.obj
 0001:000251b0       __amsg_exit                100261b0 f   LIBCMTD:dllcrt0.obj
 0001:000251f0       ?_set_new_handler@@YAP6AHI@ZP6AHI@Z@Z 100261f0 f   LIBCMTD:handler.obj
 0001:00025220       ?_query_new_handler@@YAP6AHI@ZXZ 10026220 f   LIBCMTD:handler.obj
 0001:00025230       __callnewh                 10026230 f   LIBCMTD:handler.obj
 0001:00025260       __mtinitlocks              10026260 f   LIBCMTD:mlock.obj
 0001:000252a0       __mtdeletelocks            100262a0 f   LIBCMTD:mlock.obj
 0001:00025340       __lock                     10026340 f   LIBCMTD:mlock.obj
 0001:000253e0       __unlock                   100263e0 f   LIBCMTD:mlock.obj
 0001:00025400       __lockerr_exit             10026400 f   LIBCMTD:mlock.obj
 0001:00025420       _memset                    10026420 f   LIBCMTD:memset.obj
 0001:00025480       __malloc_base              10026480 f   LIBCMTD:malloc.obj
 0001:000254a0       __nh_malloc_base           100264a0 f   LIBCMTD:malloc.obj
 0001:00025500       __heap_alloc_base          10026500 f   LIBCMTD:malloc.obj
 0001:00025570       __CrtDefaultAllocHook      10026570 f   LIBCMTD:dbghook.obj
 0001:00025580       __expand_base              10026580 f   LIBCMTD:expand.obj
 0001:00025630       __realloc_base             10026630 f   LIBCMTD:realloc.obj
 0001:00025820       __free_base                10026820 f   LIBCMTD:free.obj
 0001:00025890       __heapchk                  10026890 f   LIBCMTD:heapchk.obj
 0001:00025910       __heapset                  10026910 f   LIBCMTD:heapchk.obj
 0001:00025920       __heap_init                10026920 f   LIBCMTD:heapinit.obj
 0001:00025970       __heap_term                10026970 f   LIBCMTD:heapinit.obj
 0001:00025a10       __get_sbh_threshold        10026a10 f   LIBCMTD:sbheap.obj
 0001:00025a20       __set_sbh_threshold        10026a20 f   LIBCMTD:sbheap.obj
 0001:00025a40       ___sbh_heap_init           10026a40 f   LIBCMTD:sbheap.obj
 0001:00025aa0       ___sbh_find_block          10026aa0 f   LIBCMTD:sbheap.obj
 0001:00025b00       ___sbh_verify_block        10026b00 f   LIBCMTD:sbheap.obj
 0001:00025b60       ___sbh_free_block          10026b60 f   LIBCMTD:sbheap.obj
 0001:00026130       ___sbh_alloc_block         10027130 f   LIBCMTD:sbheap.obj
 0001:00026670       ___sbh_alloc_new_region    10027670 f   LIBCMTD:sbheap.obj
 0001:00026780       ___sbh_alloc_new_group     10027780 f   LIBCMTD:sbheap.obj
 0001:00026970       ___sbh_resize_block        10027970 f   LIBCMTD:sbheap.obj
 0001:00026f60       ___sbh_heapmin             10027f60 f   LIBCMTD:sbheap.obj
 0001:00027090       ___sbh_heap_check          10028090 f   LIBCMTD:sbheap.obj
 0001:000276b0       __isctype                  100286b0 f   LIBCMTD:isctype.obj
 0001:00027770       __setdefaultprecision      10028770 f   LIBCMTD:fp8.obj
 0001:00027790       __ms_p5_test_fdiv          10028790 f   LIBCMTD:testfdiv.obj
 0001:000277f0       __ms_p5_mp_test_fdiv       100287f0 f   LIBCMTD:testfdiv.obj
 0001:00027840       __forcdecpt                10028840 f   LIBCMTD:cvt.obj
 0001:000278f0       __cropzeros                100288f0 f   LIBCMTD:cvt.obj
 0001:000279d0       __positive                 100289d0 f   LIBCMTD:cvt.obj
 0001:00027a00       __fassign                  10028a00 f   LIBCMTD:cvt.obj
 0001:00027a50       __cftoe                    10028a50 f   LIBCMTD:cvt.obj
 0001:00027c40       __cftof                    10028c40 f   LIBCMTD:cvt.obj
 0001:00027df0       __cftog                    10028df0 f   LIBCMTD:cvt.obj
 0001:00027ee0       __cfltcvt                  10028ee0 f   LIBCMTD:cvt.obj
 0001:00027f70       __stbuf                    10028f70 f   LIBCMTD:_sftbuf.obj
 0001:000280d0       __ftbuf                    100290d0 f   LIBCMTD:_sftbuf.obj
 0001:00028170       __output                   10029170 f   LIBCMTD:output.obj
 0001:00029010       __flsbuf                   1002a010 f   LIBCMTD:_flsbuf.obj
 0001:000292a1       __fFEXP                    1002a2a1 f   LIBCMTD:87tran.obj
 0001:00029308       __rtinfpopse               1002a308 f   LIBCMTD:87tran.obj
 0001:0002930a       __rtinfnpopse              1002a30a f   LIBCMTD:87tran.obj
 0001:0002931a       __fFLN                     1002a31a f   LIBCMTD:87tran.obj
 0001:000293cf       __rtinfpop                 1002a3cf f   LIBCMTD:87tran.obj
 0001:000293d1       __rtinfnpop                1002a3d1 f   LIBCMTD:87tran.obj
 0001:000293ee       __ffexpm1                  1002a3ee f   LIBCMTD:87tran.obj
 0001:000294a0       __trandisp1                1002a4a0 f   LIBCMTD:87disp.obj
 0001:00029507       __trandisp2                1002a507 f   LIBCMTD:87disp.obj
 0001:00029593       __rttospopde               1002a593 f   LIBCMTD:87disp.obj
 0001:00029598       __rttospop                 1002a598 f   LIBCMTD:87disp.obj
 0001:0002959a       __rtnospop                 1002a59a f   LIBCMTD:87disp.obj
 0001:0002959c       __rttosnpop                1002a59c f   LIBCMTD:87disp.obj
 0001:0002959d       __rtnospopde               1002a59d f   LIBCMTD:87disp.obj
 0001:000295a4       __rtzeropop                1002a5a4 f   LIBCMTD:87disp.obj
 0001:000295a6       __rtzeronpop               1002a5a6 f   LIBCMTD:87disp.obj
 0001:000295ab       __rtonepop                 1002a5ab f   LIBCMTD:87disp.obj
 0001:000295ad       __rtonenpop                1002a5ad f   LIBCMTD:87disp.obj
 0001:000295b2       __tosnan1                  1002a5b2 f   LIBCMTD:87disp.obj
 0001:000295dd       __nosnan2                  1002a5dd f   LIBCMTD:87disp.obj
 0001:000295df       __tosnan2                  1002a5df f   LIBCMTD:87disp.obj
 0001:00029607       __nan2                     1002a607 f   LIBCMTD:87disp.obj
 0001:00029646       __rtindfpop                1002a646 f   LIBCMTD:87disp.obj
 0001:00029648       __rtindfnpop               1002a648 f   LIBCMTD:87disp.obj
 0001:00029659       __rttosnpopde              1002a659 f   LIBCMTD:87disp.obj
 0001:00029663       __rtchsifneg               1002a663 f   LIBCMTD:87disp.obj
 0001:00029670       __twoToTOS                 1002a670 f   LIBCMTD:common.obj
 0001:00029685       __load_CW                  1002a685 f   LIBCMTD:common.obj
 0001:0002969c       __convertTOStoQNaN         1002a69c f   LIBCMTD:common.obj
 0001:000296b5       __fload_withFB             1002a6b5 f   LIBCMTD:common.obj
 0001:000296f8       __checkTOS_withFB          1002a6f8 f   LIBCMTD:common.obj
 0001:0002970e       __fast_exit                1002a70e f   LIBCMTD:common.obj
 0001:0002971b       __math_exit                1002a71b f   LIBCMTD:common.obj
 0001:00029745       __check_overflow_exit      1002a745 f   LIBCMTD:common.obj
 0001:00029759       __check_range_exit         1002a759 f   LIBCMTD:common.obj
 0001:00029800       __startTwoArgErrorHandling 1002a800 f   LIBCMTD:genexcep.obj
 0001:00029817       __startOneArgErrorHandling 1002a817 f   LIBCMTD:genexcep.obj
 0001:00029860       __cintrindisp2             1002a860 f   LIBCMTD:87cdisp.obj
 0001:0002989e       __cintrindisp1             1002a89e f   LIBCMTD:87cdisp.obj
 0001:000298db       __ctrandisp2               1002a8db f   LIBCMTD:87cdisp.obj
 0001:00029a5b       __ctrandisp1               1002aa5b f   LIBCMTD:87cdisp.obj
 0001:00029a8e       __fload                    1002aa8e f   LIBCMTD:87cdisp.obj
 0001:00029ad0       __handle_qnan1             1002aad0 f   LIBCMTD:fpexcept.obj
 0001:00029b30       __handle_qnan2             1002ab30 f   LIBCMTD:fpexcept.obj
 0001:00029ba0       __except1                  1002aba0 f   LIBCMTD:fpexcept.obj
 0001:00029c60       __except2                  1002ac60 f   LIBCMTD:fpexcept.obj
 0001:00029d30       __raise_exc                1002ad30 f   LIBCMTD:fpexcept.obj
 0001:0002a200       __handle_exc               1002b200 f   LIBCMTD:fpexcept.obj
 0001:0002a580       __umatherr                 1002b580 f   LIBCMTD:fpexcept.obj
 0001:0002a620       __set_errno                1002b620 f   LIBCMTD:fpexcept.obj
 0001:0002a6a0       __errcode                  1002b6a0 f   LIBCMTD:fpexcept.obj
 0001:0002a720       __set_exp                  1002b720 f   LIBCMTD:util.obj
 0001:0002a760       __get_exp                  1002b760 f   LIBCMTD:util.obj
 0001:0002a790       __add_exp                  1002b790 f   LIBCMTD:util.obj
 0001:0002a7d0       __set_bexp                 1002b7d0 f   LIBCMTD:util.obj
 0001:0002a810       __sptype                   1002b810 f   LIBCMTD:util.obj
 0001:0002a890       __decomp                   1002b890 f   LIBCMTD:util.obj
 0001:0002a9d0       __statfp                   1002b9d0 f   LIBCMTD:fpctrl.obj
 0001:0002a9f0       __clrfp                    1002b9f0 f   LIBCMTD:fpctrl.obj
 0001:0002aa10       __ctrlfp                   1002ba10 f   LIBCMTD:fpctrl.obj
 0001:0002aa50       __set_statfp               1002ba50 f   LIBCMTD:fpctrl.obj
 0001:0002aad0       __powhlp                   1002bad0 f   LIBCMTD:powhlp.obj
 0001:0002ad40       __d_inttype                1002bd40 f   LIBCMTD:powhlp.obj
 0001:0002adc0       __frnd                     1002bdc0 f   LIBCMTD:frnd.obj
 0001:0002ade0       __copysign                 1002bde0 f   LIBCMTD:ieeemisc.obj
 0001:0002ae10       __chgsign                  1002be10 f   LIBCMTD:ieeemisc.obj
 0001:0002ae40       __scalb                    1002be40 f   LIBCMTD:ieeemisc.obj
 0001:0002ae60       __logb                     1002be60 f   LIBCMTD:ieeemisc.obj
 0001:0002af90       __nextafter                1002bf90 f   LIBCMTD:ieeemisc.obj
 0001:0002b2d0       __finite                   1002c2d0 f   LIBCMTD:ieeemisc.obj
 0001:0002b300       __isnan                    1002c300 f   LIBCMTD:ieeemisc.obj
 0001:0002b350       __fpclass                  1002c350 f   LIBCMTD:ieeemisc.obj
 0001:0002b430       __fltin2                   1002c430 f   LIBCMTD:cfin.obj
 0001:0002b4f0       _setlocale                 1002c4f0 f   LIBCMTD:setlocal.obj
 0001:0002bb80       __expandlocale             1002cb80 f   LIBCMTD:setlocal.obj
 0001:0002bd10       ___init_dummy              1002cd10 f   LIBCMTD:setlocal.obj
 0001:0002bd20       __strcats                  1002cd20 f   LIBCMTD:setlocal.obj
 0001:0002bd70       ___lc_strtolc              1002cd70 f   LIBCMTD:setlocal.obj
 0001:0002bed0       ___lc_lctostr              1002ced0 f   LIBCMTD:setlocal.obj
 0001:0002bf40       ___crtLCMapStringA         1002cf40 f   LIBCMTD:a_map.obj
 0001:0002c2a0       __getbuf                   1002d2a0 f   LIBCMTD:_getbuf.obj
 0001:0002c370       __filbuf                   1002d370 f   LIBCMTD:_filbuf.obj
 0001:0002c560       __ioinit                   1002d560 f   LIBCMTD:ioinit.obj
 0001:0002c890       __ioterm                   1002d890 f   LIBCMTD:ioinit.obj
 0001:0002c930       __fcloseall                1002d930 f   LIBCMTD:closeall.obj
 0001:0002ca10       __mtinit                   1002da10 f   LIBCMTD:tidtable.obj
 0001:0002caa0       __mtterm                   1002daa0 f   LIBCMTD:tidtable.obj
 0001:0002cad0       __initptd                  1002dad0 f   LIBCMTD:tidtable.obj
 0001:0002caf0       __getptd                   1002daf0 f   LIBCMTD:tidtable.obj
 0001:0002cb90       __freeptd                  1002db90 f   LIBCMTD:tidtable.obj
 0001:0002cca0       ___threadid                1002dca0 f   LIBCMTD:tidtable.obj
 0001:0002ccb0       ___threadhandle            1002dcb0 f   LIBCMTD:tidtable.obj
 0001:0002ccc0       _signal                    1002dcc0 f   LIBCMTD:winsig.obj
 0001:0002cf90       _raise                     1002df90 f   LIBCMTD:winsig.obj
 0001:0002d230       ___fpecode                 1002e230 f   LIBCMTD:winsig.obj
 0001:0002d240       ___pxcptinfoptrs           1002e240 f   LIBCMTD:winsig.obj
 0001:0002d250       __input                    1002e250 f   LIBCMTD:input.obj
 0001:0002e750       __allmul                   1002f750 f   LIBCMTD:llmul.obj
 0001:0002e790       __snprintf                 1002f790 f   LIBCMTD:snprintf.obj
 0001:0002e890       __vsnprintf                1002f890 f   LIBCMTD:vsnprint.obj
 0001:0002e990       ___crtMessageBoxA          1002f990 f   LIBCMTD:crtmbox.obj
 0001:0002ea50       __close                    1002fa50 f   LIBCMTD:close.obj
 0001:0002ead0       __close_lk                 1002fad0 f   LIBCMTD:close.obj
 0001:0002eb80       __freebuf                  1002fb80 f   LIBCMTD:_freebuf.obj
 0001:0002ec20       __openfile                 1002fc20 f   LIBCMTD:_open.obj
 0001:0002efb0       __getstream                1002ffb0 f   LIBCMTD:stream.obj
 0001:0002f130       ___loctotime_t             10030130 f   LIBCMTD:dtoxtime.obj
 0001:0002f220       __aulldiv                  10030220 f   LIBCMTD:ulldiv.obj
 0001:0002f290       __aullrem                  10030290 f   LIBCMTD:ullrem.obj
 0001:0002f310       __read                     10030310 f   LIBCMTD:read.obj
 0001:0002f3a0       __read_lk                  100303a0 f   LIBCMTD:read.obj
 0001:0002f7f0       __alloc_osfhnd             100307f0 f   LIBCMTD:osfinfo.obj
 0001:0002f9e0       __set_osfhnd               100309e0 f   LIBCMTD:osfinfo.obj
 0001:0002faa0       __free_osfhnd              10030aa0 f   LIBCMTD:osfinfo.obj
 0001:0002fb80       __get_osfhandle            10030b80 f   LIBCMTD:osfinfo.obj
 0001:0002fbf0       __open_osfhandle           10030bf0 f   LIBCMTD:osfinfo.obj
 0001:0002fd00       __lock_fhandle             10030d00 f   LIBCMTD:osfinfo.obj
 0001:0002fd90       __unlock_fhandle           10030d90 f   LIBCMTD:osfinfo.obj
 0001:0002fdc0       __dosmaperr                10030dc0 f   LIBCMTD:dosmap.obj
 0001:0002fe60       __errno                    10030e60 f   LIBCMTD:dosmap.obj
 0001:0002fe70       ___doserrno                10030e70 f   LIBCMTD:dosmap.obj
 0001:0002fe80       __write                    10030e80 f   LIBCMTD:write.obj
 0001:0002ff10       __write_lk                 10030f10 f   LIBCMTD:write.obj
 0001:00030190       __commit                   10031190 f   LIBCMTD:commit.obj
 0001:00030270       ___tzset                   10031270 f   LIBCMTD:tzset.obj
 0001:000302b0       __tzset                    100312b0 f   LIBCMTD:tzset.obj
 0001:00030680       __isindst                  10031680 f   LIBCMTD:tzset.obj
 0001:00030bb0       _gmtime                    10031bb0 f   LIBCMTD:gmtime.obj
 0001:00030db0       __setenvp                  10031db0 f   LIBCMTD:stdenvp.obj
 0001:00030f00       __setargv                  10031f00 f   LIBCMTD:stdargv.obj
 0001:00031410       ___crtGetEnvironmentStringsA 10032410 f   LIBCMTD:a_env.obj
 0001:00031630       __FF_MSGBANNER             10032630 f   LIBCMTD:crt0msg.obj
 0001:00031680       __NMSG_WRITE               10032680 f   LIBCMTD:crt0msg.obj
 0001:00031840       __GET_RTERRMSG             10032840 f   LIBCMTD:crt0msg.obj
 0001:00031890       _memmove                   10032890 f   LIBCMTD:memmove.obj
 0001:00031bd0       ___crtGetStringTypeA       10032bd0 f   LIBCMTD:a_str.obj
 0001:00031d90       __ZeroTail                 10032d90 f   LIBCMTD:intrncvt.obj
 0001:00031e20       __IncMan                   10032e20 f   LIBCMTD:intrncvt.obj
 0001:00031ed0       __RoundMan                 10032ed0 f   LIBCMTD:intrncvt.obj
 0001:00031fb0       __CopyMan                  10032fb0 f   LIBCMTD:intrncvt.obj
 0001:00032000       __FillZeroMan              10033000 f   LIBCMTD:intrncvt.obj
 0001:00032030       __IsZeroMan                10033030 f   LIBCMTD:intrncvt.obj
 0001:00032070       __ShrMan                   10033070 f   LIBCMTD:intrncvt.obj
 0001:00032160       __ld12cvt                  10033160 f   LIBCMTD:intrncvt.obj
 0001:000323b0       __ld12tod                  100333b0 f   LIBCMTD:intrncvt.obj
 0001:000323d0       __ld12tof                  100333d0 f   LIBCMTD:intrncvt.obj
 0001:000323f0       __ld12told                 100333f0 f   LIBCMTD:intrncvt.obj
 0001:000324b0       __atodbl                   100334b0 f   LIBCMTD:intrncvt.obj
 0001:000324f0       __atoldbl                  100334f0 f   LIBCMTD:intrncvt.obj
 0001:00032530       __atoflt                   10033530 f   LIBCMTD:intrncvt.obj
 0001:00032570       __fptostr                  10033570 f   LIBCMTD:_fptostr.obj
 0001:00032670       __fltout2                  10033670 f   LIBCMTD:cfout.obj
 0001:000326f0       ___dtold                   100336f0 f   LIBCMTD:cfout.obj
 0001:00032860       __fptrap                   10033860 f   LIBCMTD:crt0fp.obj
 0001:00032870       __isatty                   10033870 f   LIBCMTD:isatty.obj
 0001:000328b0       _wctomb                    100338b0 f   LIBCMTD:wctomb.obj
 0001:00032930       __wctomb_lk                10033930 f   LIBCMTD:wctomb.obj
 0001:000329d0       __lseek                    100339d0 f   LIBCMTD:lseek.obj
 0001:00032a60       __lseek_lk                 10033a60 f   LIBCMTD:lseek.obj
 0001:00032b20       _fdiv_main_routine         10033b20 f   LIBCMTD:adj_fdiv.obj
 0001:00032c37       __adj_fdiv_r               10033c37 f   LIBCMTD:adj_fdiv.obj
 0001:000330d6       __fdivp_sti_st             100340d6 f   LIBCMTD:adj_fdiv.obj
 0001:000330e9       __fdivrp_sti_st            100340e9 f   LIBCMTD:adj_fdiv.obj
 0001:000330fc       __adj_fdiv_m32             100340fc f   LIBCMTD:adj_fdiv.obj
 0001:00033148       __adj_fdiv_m64             10034148 f   LIBCMTD:adj_fdiv.obj
 0001:00033194       __adj_fdiv_m16i            10034194 f   LIBCMTD:adj_fdiv.obj
 0001:000331c8       __adj_fdiv_m32i            100341c8 f   LIBCMTD:adj_fdiv.obj
 0001:000331fc       __adj_fdivr_m32            100341fc f   LIBCMTD:adj_fdiv.obj
 0001:00033248       __adj_fdivr_m64            10034248 f   LIBCMTD:adj_fdiv.obj
 0001:00033294       __adj_fdivr_m16i           10034294 f   LIBCMTD:adj_fdiv.obj
 0001:000332c8       __adj_fdivr_m32i           100342c8 f   LIBCMTD:adj_fdiv.obj
 0001:000332fc       __safe_fdiv                100342fc f   LIBCMTD:adj_fdiv.obj
 0001:00033311       __safe_fdivr               10034311 f   LIBCMTD:adj_fdiv.obj
 0001:00033326       __fprem_common             10034326 f   LIBCMTD:adj_fdiv.obj
 0001:0003352c       __adj_fprem                1003452c f   LIBCMTD:adj_fdiv.obj
 0001:000335de       __fprem1_common            100345de f   LIBCMTD:adj_fdiv.obj
 0001:000337e4       __adj_fprem1               100347e4 f   LIBCMTD:adj_fdiv.obj
 0001:00033899       __safe_fprem               10034899 f   LIBCMTD:adj_fdiv.obj
 0001:0003389f       __safe_fprem1              1003489f f   LIBCMTD:adj_fdiv.obj
 0001:000338a5       __adj_fpatan               100348a5 f   LIBCMTD:adj_fdiv.obj
 0001:000338a8       __adj_fptan                100348a8 f   LIBCMTD:adj_fdiv.obj
 0001:000338b0       __87except                 100348b0 f   LIBCMTD:87except.obj
 0001:00033a30       __matherr                  10034a30 f   LIBCMTD:matherr.obj
 0001:00033a40       _ldexp                     10034a40 f   LIBCMTD:ldexp.obj
 0001:00033d00       ___strgtold12              10034d00 f   LIBCMTD:strgtold.obj
 0001:00034830       ___STRINGTOLD              10035830 f   LIBCMTD:strgtold.obj
 0001:00034880       ___init_time               10035880 f   LIBCMTD:inittime.obj
 0001:00035200       ___init_numeric            10036200 f   LIBCMTD:initnum.obj
 0001:00035530       ___init_monetary           10036530 f   LIBCMTD:initmon.obj
 0001:00035990       ___init_ctype              10036990 f   LIBCMTD:initctyp.obj
 0001:00035d30       ___init_collate            10036d30 f   LIBCMTD:initcoll.obj
 0001:00035d40       _strncmp                   10036d40 f   LIBCMTD:strncmp.obj
 0001:00035d80       _strpbrk                   10036d80 f   LIBCMTD:strpbrk.obj
 0001:00035dc0       ___get_qualified_locale    10036dc0 f   LIBCMTD:getqloc.obj
 0001:00036b58       __global_unwind2           10037b58 f   LIBCMTD:exsup.obj
 0001:00036b9a       __local_unwind2            10037b9a f   LIBCMTD:exsup.obj
 0001:00036bf2       __NLG_Return2              10037bf2 f   LIBCMTD:exsup.obj
 0001:00036c02       __abnormal_termination     10037c02 f   LIBCMTD:exsup.obj
 0001:00036c25       __NLG_Notify1              10037c25 f   LIBCMTD:exsup.obj
 0001:00036c2e       __NLG_Notify               10037c2e f   LIBCMTD:exsup.obj
 0001:00036c41       __NLG_Dispatch             10037c41 f   LIBCMTD:exsup.obj
 0001:00036c50       __except_handler3          10037c50 f   LIBCMTD:exsup3.obj
 0001:00036d0d       __seh_longjmp_unwind@4     10037d0d f   LIBCMTD:exsup3.obj
 0001:00036d30       __XcptFilter               10037d30 f   LIBCMTD:winxfltr.obj
 0001:00036f50       _mbtowc                    10037f50 f   LIBCMTD:mbtowc.obj
 0001:00036fd0       __mbtowc_lk                10037fd0 f   LIBCMTD:mbtowc.obj
 0001:00037130       _isalpha                   10038130 f   LIBCMTD:_ctype.obj
 0001:00037180       _isupper                   10038180 f   LIBCMTD:_ctype.obj
 0001:000371c0       _islower                   100381c0 f   LIBCMTD:_ctype.obj
 0001:00037200       _isdigit                   10038200 f   LIBCMTD:_ctype.obj
 0001:00037240       _isxdigit                  10038240 f   LIBCMTD:_ctype.obj
 0001:00037290       _isspace                   10038290 f   LIBCMTD:_ctype.obj
 0001:000372d0       _ispunct                   100382d0 f   LIBCMTD:_ctype.obj
 0001:00037310       _isalnum                   10038310 f   LIBCMTD:_ctype.obj
 0001:00037360       _isprint                   10038360 f   LIBCMTD:_ctype.obj
 0001:000373b0       _isgraph                   100383b0 f   LIBCMTD:_ctype.obj
 0001:00037400       _iscntrl                   10038400 f   LIBCMTD:_ctype.obj
 0001:00037440       ___isascii                 10038440 f   LIBCMTD:_ctype.obj
 0001:00037450       ___toascii                 10038450 f   LIBCMTD:_ctype.obj
 0001:00037460       ___iscsymf                 10038460 f   LIBCMTD:_ctype.obj
 0001:000374c0       ___iscsym                  100384c0 f   LIBCMTD:_ctype.obj
 0001:00037520       __allshl                   10038520 f   LIBCMTD:llshl.obj
 0001:00037540       __open                     10038540 f   LIBCMTD:open.obj
 0001:00037580       __sopen                    10038580 f   LIBCMTD:open.obj
 0001:00037ae0       _getenv                    10038ae0 f   LIBCMTD:getenv.obj
 0001:00037b10       __getenv_lk                10038b10 f   LIBCMTD:getenv.obj
 0001:00037be0       __setmbcp                  10038be0 f   LIBCMTD:mbctype.obj
 0001:000383a0       __getmbcp                  100393a0 f   LIBCMTD:mbctype.obj
 0001:000383c0       ___initmbctable            100393c0 f   LIBCMTD:mbctype.obj
 0001:000383f0       ___addl                    100393f0 f   LIBCMTD:mantold.obj
 0001:00038430       ___add_12                  10039430 f   LIBCMTD:mantold.obj
 0001:000384e0       ___shl_12                  100394e0 f   LIBCMTD:mantold.obj
 0001:00038540       ___shr_12                  10039540 f   LIBCMTD:mantold.obj
 0001:000385b0       ___mtold12                 100395b0 f   LIBCMTD:mantold.obj
 0001:000386f0       _$I10_OUTPUT               100396f0 f   LIBCMTD:x10fout.obj
 0001:00038c10       ___ld12mul                 10039c10 f   LIBCMTD:tenpow.obj
 0001:00039050       ___multtenpow12            1003a050 f   LIBCMTD:tenpow.obj
 0001:00039120       __Getdays                  1003a120 f   LIBCMTD:strftime.obj
 0001:00039250       __Getmonths                1003a250 f   LIBCMTD:strftime.obj
 0001:00039380       __Gettnames                1003a380 f   LIBCMTD:strftime.obj
 0001:000396f0       _strftime                  1003a6f0 f   LIBCMTD:strftime.obj
 0001:00039710       __Strftime                 1003a710 f   LIBCMTD:strftime.obj
 0001:0003a590       ___getlocaleinfo           1003b590 f   LIBCMTD:inithelp.obj
 0001:0003a820       _localeconv                1003b820 f   LIBCMTD:lconv.obj
 0001:0003a830       ___crtGetStringTypeW       1003b830 f   LIBCMTD:w_str.obj
 0001:0003aaa0       __strnicmp                 1003baa0 f   LIBCMTD:strnicmp.obj
 0001:0003abb0       __chsize                   1003bbb0 f   LIBCMTD:chsize.obj
 0001:0003ac30       __chsize_lk                1003bc30 f   LIBCMTD:chsize.obj
 0001:0003ae60       __mbsnbicoll               1003be60 f   LIBCMTD:mbsnbico.obj
 0001:0003aeb0       ___wtomb_environ           1003beb0 f   LIBCMTD:wtombenv.obj
 0001:0003af60       ___crtGetLocaleInfoW       1003bf60 f   LIBCMTD:w_loc.obj
 0001:0003b100       ___crtGetLocaleInfoA       1003c100 f   LIBCMTD:a_loc.obj
 0001:0003b2b0       __setmode                  1003c2b0 f   LIBCMTD:setmode.obj
 0001:0003b330       __setmode_lk               1003c330 f   LIBCMTD:setmode.obj
 0001:0003b400       ___crtCompareStringA       1003c400 f   LIBCMTD:a_cmp.obj
 0001:0003b850       ___crtsetenv               1003c850 f   LIBCMTD:setenv.obj
 0001:0003bca0       __mbschr                   1003cca0 f   LIBCMTD:mbschr.obj
 0001:0003bd90       _IsBadWritePtr@8           1003cd90 f   kernel32:KERNEL32.dll
 0001:0003bd96       _IsBadReadPtr@8            1003cd96 f   kernel32:KERNEL32.dll
 0001:0003bd9c       _HeapValidate@12           1003cd9c f   kernel32:KERNEL32.dll
 0001:0003bda2       _InterlockedDecrement@4    1003cda2 f   kernel32:KERNEL32.dll
 0001:0003bda8       _InterlockedIncrement@4    1003cda8 f   kernel32:KERNEL32.dll
 0001:0003bdae       _EnterCriticalSection@4    1003cdae f   kernel32:KERNEL32.dll
 0001:0003bdb4       _LeaveCriticalSection@4    1003cdb4 f   kernel32:KERNEL32.dll
 0001:0003bdba       _ExitProcess@4             1003cdba f   kernel32:KERNEL32.dll
 0001:0003bdc0       _TerminateProcess@8        1003cdc0 f   kernel32:KERNEL32.dll
 0001:0003bdc6       _GetCurrentProcess@0       1003cdc6 f   kernel32:KERNEL32.dll
 0001:0003bdcc       _DebugBreak@0              1003cdcc f   kernel32:KERNEL32.dll
 0001:0003bdd2       _GetStdHandle@4            1003cdd2 f   kernel32:KERNEL32.dll
 0001:0003bdd8       _WriteFile@20              1003cdd8 f   kernel32:KERNEL32.dll
 0001:0003bdde       _OutputDebugStringA@4      1003cdde f   kernel32:KERNEL32.dll
 0001:0003bde4       _GetProcAddress@8          1003cde4 f   kernel32:KERNEL32.dll
 0001:0003bdea       _LoadLibraryA@4            1003cdea f   kernel32:KERNEL32.dll
 0001:0003bdf0       _GetModuleFileNameA@12     1003cdf0 f   kernel32:KERNEL32.dll
 0001:0003bdf6       _GetTimeZoneInformation@4  1003cdf6 f   kernel32:KERNEL32.dll
 0001:0003bdfc       _GetSystemTime@4           1003cdfc f   kernel32:KERNEL32.dll
 0001:0003be02       _GetLocalTime@4            1003ce02 f   kernel32:KERNEL32.dll
 0001:0003be08       _GetCommandLineA@0         1003ce08 f   kernel32:KERNEL32.dll
 0001:0003be0e       _GetVersion@0              1003ce0e f   kernel32:KERNEL32.dll
 0001:0003be14       _InitializeCriticalSection@4 1003ce14 f   kernel32:KERNEL32.dll
 0001:0003be1a       _DeleteCriticalSection@4   1003ce1a f   kernel32:KERNEL32.dll
 0001:0003be20       _FatalAppExitA@8           1003ce20 f   kernel32:KERNEL32.dll
 0001:0003be26       _HeapAlloc@12              1003ce26 f   kernel32:KERNEL32.dll
 0001:0003be2c       _HeapReAlloc@16            1003ce2c f   kernel32:KERNEL32.dll
 0001:0003be32       _HeapFree@12               1003ce32 f   kernel32:KERNEL32.dll
 0001:0003be38       _GetLastError@0            1003ce38 f   kernel32:KERNEL32.dll
 0001:0003be3e       _HeapDestroy@4             1003ce3e f   kernel32:KERNEL32.dll
 0001:0003be44       _HeapCreate@12             1003ce44 f   kernel32:KERNEL32.dll
 0001:0003be4a       _VirtualFree@12            1003ce4a f   kernel32:KERNEL32.dll
 0001:0003be50       _VirtualAlloc@16           1003ce50 f   kernel32:KERNEL32.dll
 0001:0003be56       _GetModuleHandleA@4        1003ce56 f   kernel32:KERNEL32.dll
 0001:0003be5c       _RaiseException@16         1003ce5c f   kernel32:KERNEL32.dll
 0001:0003be62       _WideCharToMultiByte@32    1003ce62 f   kernel32:KERNEL32.dll
 0001:0003be68       _MultiByteToWideChar@24    1003ce68 f   kernel32:KERNEL32.dll
 0001:0003be6e       _LCMapStringA@24           1003ce6e f   kernel32:KERNEL32.dll
 0001:0003be74       _LCMapStringW@24           1003ce74 f   kernel32:KERNEL32.dll
 0001:0003be7a       _SetHandleCount@4          1003ce7a f   kernel32:KERNEL32.dll
 0001:0003be80       _GetFileType@4             1003ce80 f   kernel32:KERNEL32.dll
 0001:0003be86       _GetStartupInfoA@4         1003ce86 f   kernel32:KERNEL32.dll
 0001:0003be8c       _GetCurrentThreadId@0      1003ce8c f   kernel32:KERNEL32.dll
 0001:0003be92       _TlsSetValue@8             1003ce92 f   kernel32:KERNEL32.dll
 0001:0003be98       _TlsAlloc@0                1003ce98 f   kernel32:KERNEL32.dll
 0001:0003be9e       _TlsFree@4                 1003ce9e f   kernel32:KERNEL32.dll
 0001:0003bea4       _SetLastError@4            1003cea4 f   kernel32:KERNEL32.dll
 0001:0003beaa       _TlsGetValue@4             1003ceaa f   kernel32:KERNEL32.dll
 0001:0003beb0       _GetCurrentThread@0        1003ceb0 f   kernel32:KERNEL32.dll
 0001:0003beb6       _SetConsoleCtrlHandler@8   1003ceb6 f   kernel32:KERNEL32.dll
 0001:0003bebc       _CloseHandle@4             1003cebc f   kernel32:KERNEL32.dll
 0001:0003bec2       _ReadFile@20               1003cec2 f   kernel32:KERNEL32.dll
 0001:0003bec8       _SetStdHandle@8            1003cec8 f   kernel32:KERNEL32.dll
 0001:0003bece       _FlushFileBuffers@4        1003cece f   kernel32:KERNEL32.dll
 0001:0003bed4       _FreeEnvironmentStringsA@4 1003ced4 f   kernel32:KERNEL32.dll
 0001:0003beda       _FreeEnvironmentStringsW@4 1003ceda f   kernel32:KERNEL32.dll
 0001:0003bee0       _GetEnvironmentStrings@0   1003cee0 f   kernel32:KERNEL32.dll
 0001:0003bee6       _GetEnvironmentStringsW@0  1003cee6 f   kernel32:KERNEL32.dll
 0001:0003beec       _GetStringTypeA@20         1003ceec f   kernel32:KERNEL32.dll
 0001:0003bef2       _GetStringTypeW@16         1003cef2 f   kernel32:KERNEL32.dll
 0001:0003bef8       _SetFilePointer@16         1003cef8 f   kernel32:KERNEL32.dll
 0001:0003befe       _GetCPInfo@8               1003cefe f   kernel32:KERNEL32.dll
 0001:0003bf04       _IsValidLocale@8           1003cf04 f   kernel32:KERNEL32.dll
 0001:0003bf0a       _IsValidCodePage@4         1003cf0a f   kernel32:KERNEL32.dll
 0001:0003bf10       _GetLocaleInfoA@16         1003cf10 f   kernel32:KERNEL32.dll
 0001:0003bf16       _EnumSystemLocalesA@8      1003cf16 f   kernel32:KERNEL32.dll
 0001:0003bf1c       _GetUserDefaultLCID@0      1003cf1c f   kernel32:KERNEL32.dll
 0001:0003bf22       _GetVersionExA@4           1003cf22 f   kernel32:KERNEL32.dll
 0001:0003bf28       _RtlUnwind@16              1003cf28 f   kernel32:KERNEL32.dll
 0001:0003bf2e       _UnhandledExceptionFilter@4 1003cf2e f   kernel32:KERNEL32.dll
 0001:0003bf34       _CreateFileA@28            1003cf34 f   kernel32:KERNEL32.dll
 0001:0003bf3a       _GetACP@0                  1003cf3a f   kernel32:KERNEL32.dll
 0001:0003bf40       _GetOEMCP@0                1003cf40 f   kernel32:KERNEL32.dll
 0001:0003bf46       _SetEndOfFile@4            1003cf46 f   kernel32:KERNEL32.dll
 0001:0003bf4c       _GetLocaleInfoW@16         1003cf4c f   kernel32:KERNEL32.dll
 0001:0003bf52       _CompareStringA@24         1003cf52 f   kernel32:KERNEL32.dll
 0001:0003bf58       _CompareStringW@24         1003cf58 f   kernel32:KERNEL32.dll
 0001:0003bf5e       _SetEnvironmentVariableA@8 1003cf5e f   kernel32:KERNEL32.dll
 0001:0003bf70       ___dtoxmode                1003cf70 f   LIBCMTD:stat.obj
 0001:0003c0c0       __stat                     1003d0c0 f   LIBCMTD:stat.obj
 0001:0003c0c0       _stat                      1003d0c0 f   LIBCMTD:stat.obj
 0001:0003c640       __mbsicmp                  1003d640 f   LIBCMTD:mbsicmp.obj
 0001:0003c8e0       __mbsrchr                  1003d8e0 f   LIBCMTD:mbsrchr.obj
 0001:0003c9b0       __fullpath                 1003d9b0 f   LIBCMTD:fullpath.obj
 0001:0003ca90       __getdrive                 1003da90 f   LIBCMTD:drive.obj
 0001:0003caf0       __chdrive                  1003daf0 f   LIBCMTD:drive.obj
 0001:0003cb80       __mbctolower               1003db80 f   LIBCMTD:mbtolwr.obj
 0001:0003cc60       __mbspbrk                  1003dc60 f   LIBCMTD:mbspbrk.obj
 0001:0003cda0       _strrchr                   1003dda0 f   LIBCMTD:strrchr.obj
 0001:0003cdd0       __getcwd                   1003ddd0 f   LIBCMTD:getcwd.obj
 0001:0003ce10       __getdcwd                  1003de10 f   LIBCMTD:getcwd.obj
 0001:0003ce50       __getdcwd_lk               1003de50 f   LIBCMTD:getcwd.obj
 0001:0003cf70       __validdrive               1003df70 f   LIBCMTD:getcwd.obj
 0001:0003cfbe       _FindClose@4               1003dfbe f   kernel32:KERNEL32.dll
 0001:0003cfc4       _FileTimeToSystemTime@8    1003dfc4 f   kernel32:KERNEL32.dll
 0001:0003cfca       _FileTimeToLocalFileTime@8 1003dfca f   kernel32:KERNEL32.dll
 0001:0003cfd0       _GetDriveTypeA@4           1003dfd0 f   kernel32:KERNEL32.dll
 0001:0003cfd6       _FindFirstFileA@8          1003dfd6 f   kernel32:KERNEL32.dll
 0001:0003cfdc       _GetFullPathNameA@16       1003dfdc f   kernel32:KERNEL32.dll
 0001:0003cfe2       _GetCurrentDirectoryA@8    1003dfe2 f   kernel32:KERNEL32.dll
 0001:0003cfe8       _SetCurrentDirectoryA@4    1003dfe8 f   kernel32:KERNEL32.dll
 0002:0000001c       ??_C@_0CL@HPK@?5is?5not?5of?5type?5Integer?0?5or?5Doub@ 1003e01c     Add.obj
 0002:00000048       ??_C@_0O@MJKC@?5or?5argument?5?$AA@ 1003e048     Add.obj
 0002:00000058       ??_C@_09HDIL@Argument?5?$AA@ 1003e058     Add.obj
 0002:00000064       ??_C@_0CH@NBOB@?5not?5found?5during?5ADD?5function?4?5@ 1003e064     Add.obj
 0002:0000008c       ??_C@_0BF@DEKB@BlackBoard?5variable?5?$AA@ 1003e08c     Add.obj
 0002:000000a4       ??_C@_0CC@CHKF@Progression?5due?5to?5new?5metastasi@ 1003e0a4     AddToEventQ.obj
 0002:000000c8       ??_C@_01PJCK@?4?$AA@       1003e0c8     AddToEventQ.obj
 0002:000000cc       ??_C@_0DE@CGKB@?5is?5not?5of?5type?5Boolean?0?5Integer@ 1003e0cc     And.obj
 0002:00000100       __real@8@00000000000000000000 1003e100     And.obj
 0002:00000108       ??_C@_0CH@LNFB@?5not?5found?5during?5AND?5function?4?5@ 1003e108     And.obj
 0002:00000130       ??_C@_0BN@BOHB@?5Not?5of?5type?5Boolean?4?5?$FLAndA?$FN?$AA@ 1003e130     And.obj
 0002:00000150       ??_C@_05GKMN@OVER2?$AA@    1003e150     ApplyRegimen.obj
 0002:00000158       __real@8@bfff8000000000000000 1003e158     Applyrul.obj
 0002:00000160       ??_C@_0CO@PGNF@?$CFs?7function?3Applyrul?4ApplyRules?7@ 1003e160     Applyrul.obj
 0002:00000190       ??_C@_0BA@PPME@CTTreatment?5?$DO?52?$AA@ 1003e190     ApplyTrialSched.obj
 0002:000001a0       ??_C@_06ENMJ@?$CFlf?5?5?$AA?$AA@ 1003e1a0     ApplyTrialSched.obj
 0002:000001a8       __real@8@3fff8000000000000000 1003e1a8     ApplyTrialSched.obj
 0002:000001b0       ??_C@_0CA@IOCK@Out?5of?5Memory?5?$FLApplyTrialSched?$FN?$AA@ 1003e1b0     ApplyTrialSched.obj
 0002:000001d0       ??_C@_00A@?$AA@            1003e1d0     ApplyTrialSched.obj
 0002:000001d8       __real@8@4002e000000000000000 1003e1d8     ApplyTrialSched.obj
 0002:000001e0       __real@8@4003e000000000000000 1003e1e0     ApplyTrialSched.obj
 0002:000001e8       ??_C@_0CL@KN@?5?5?5?5?5?5CAUTION?3?5logten?5evaluated?5@ 1003e1e8     ariths.obj
 0002:00000218       __real@8@4000935d8ddd90cec800 1003e218     ariths.obj
 0002:00000220       __real@8@c005a000000000000000 1003e220     ariths.obj
 0002:00000228       ??_C@_0CD@MCJJ@nsched?5is?5too?5big?5?$CIbuildsched?$CJ?3?5@ 1003e228     buildsche.obj
 0002:0000024c       ??_C@_0DC@HBGB@CAUTION?3?5total?5?$CD?5timepoints?5must@ 1003e24c     buildsche.obj
 0002:00000280       __real@8@3ff1d1b71758e2196800 1003e280     cellcount.obj
 0002:00000288       __real@8@3ff9f5c28f5c28f5c000 1003e288     cellcount.obj
 0002:00000290       __real@8@40008000000000000000 1003e290     cellcount.obj
 0002:00000298       ??_C@_0BK@GMB@Invalid?5Call?5to?5s2wrapper?$AA@ 1003e298     cellp.obj
 0002:000002b4       ??_C@_07CMEH@InitTox?$AA@  1003e2b4     cellp.obj
 0002:000002bc       ??_C@_09NFIB@PokePgfCN?$AA@ 1003e2bc     cellp.obj
 0002:000002c8       ??_C@_06GPDJ@PeekCN?$AA@   1003e2c8     cellp.obj
 0002:000002d0       ??_C@_0DH@PMML@?$CFs?7function?3cellp?4s2wrapper?7what@ 1003e2d0     cellp.obj
 0002:00000308       ??_C@_0DM@NAMO@Note?3?5at?5least?5one?5cell?5was?5alte@ 1003e308     cellp.obj
 0002:00000348       __real@8@4003a000000000000000 1003e348     cellp.obj
 0002:00000350       ??_C@_02GOLJ@?$CFe?$AA@    1003e350     cellp.obj
 0002:00000354       ??_C@_0IK@PNKO@Sorry?4?5The?5total?5number?5of?5cell?5@ 1003e354     cellp.obj
 0002:000003e0       ??_C@_09IGDF@treat?4dll?$AA@ 1003e3e0     cellp.obj
 0002:000003f0       __real@8@bfd78cbccc096f508800 1003e3f0     cellp.obj
 0002:000003f8       __real@8@3fd78cbccc096f508800 1003e3f8     cellp.obj
 0002:00000400       ??_C@_0BK@PMNI@Cell?5Counts?5?$CI?5celltype?5?$CJ?6?$AA@ 1003e400     cellp.obj
 0002:0000041c       ??_C@_01BJG@?6?$AA@        1003e41c     cellp.obj
 0002:00000420       ??_C@_0N@LJED@?5?5?5Type?5?$CFd?5?5?$AA@ 1003e420     cellp.obj
 0002:00000430       ??_C@_0BM@IKAK@Time?5Point?5?$FLactive_ntypes?$FN?5?$AA@ 1003e430     cellp.obj
 0002:0000044c       ??_C@_0M@EBME@ntypes?$DN?$CFd?6?6?$AA@ 1003e44c     cellp.obj
 0002:00000458       ??_C@_0N@JAN@PrintGap?$DN?$CFd?6?$AA@ 1003e458     cellp.obj
 0002:00000468       ??_C@_0M@CMIJ@endT?5?$DN?5?$CFf?5?6?$AA@ 1003e468     cellp.obj
 0002:00000474       ??_C@_0O@CCFE@startT?5?$DN?5?$CFf?5?6?$AA@ 1003e474     cellp.obj
 0002:00000484       ??_C@_0P@GBEJ@delta_t?5?$DN?5?$CFf?5?6?$AA@ 1003e484     cellp.obj
 0002:00000498       __real@8@3fffb8aa433508f64800 1003e498     cellp.obj
 0002:000004a0       __real@8@c0029000000000000000 1003e4a0     cellp.obj
 0002:000004a8       ??_C@_0CP@FEEO@?$CFs?7function?3cellp?4sumcellbylevel@ 1003e4a8     cellp.obj
 0002:000004d8       ??_C@_05HNGG@Tumor?$AA@    1003e4d8     checkevents.obj
 0002:000004e0       ??_C@_0BC@NOPK@Tumor?5Progression?$AA@ 1003e4e0     checkevents.obj
 0002:000004f8       __real@8@4005c800000000000000 1003e4f8     checkevents.obj
 0002:00000500       __real@8@3ffe8000000000000000 1003e500     checkevents.obj
 0002:00000508       ??_C@_05GDDG@?$CF?44e?$AA?$AA@ 1003e508     checkevents.obj
 0002:00000510       ??_C@_01FCOA@?5?$AA@       1003e510     CheckForTox.obj
 0002:00000514       ??_C@_01PLFL@5?$AA@        1003e514     CheckForTox.obj
 0002:00000518       __real@8@3ffec000000000000000 1003e518     CheckForTox.obj
 0002:00000520       ??_C@_02MECO@?$CFd?$AA@    1003e520     CheckForTox.obj
 0002:00000524       ??_C@_0BJ@JOLA@Maximum?5Courses?5Received?$AA@ 1003e524     CheckForTreatment.obj
 0002:00000540       ??_C@_03HNME@?$CFd?$AA?$AA@ 1003e540     CheckForTreatment.obj
 0002:00000544       ??_C@_04NMA@?$CFlf?$AA?$AA@ 1003e544     CheckForTreatment.obj
 0002:0000054c       ??_C@_03GLGO@?$CFe?$AA?$AA@ 1003e54c     CheckForTreatment.obj
 0002:00000550       ??_C@_0CD@CMCN@?$CFs?7function?3ClearRules?4ClearRule@ 1003e550     ClearRules.obj
 0002:00000574       ??_C@_0CK@FJOB@?5is?5not?5of?5type?5Integer?0?5or?5Doub@ 1003e574     Comp.obj
 0002:000005a0       ??_C@_0DI@CELF@?5not?5found?5while?5trying?5to?5perfo@ 1003e5a0     Comp.obj
 0002:000005d8       ??_C@_0BN@BAJL@?5Not?5of?5type?5Boolean?4?5?$FLComp?$FN?$AA@ 1003e5d8     Comp.obj
 0002:000005f8       ??_C@_05MPFE@?$HONULL?$AA@ 1003e5f8     Comp.obj
 0002:00000600       ??_C@_08CHPE@?5?$FLCompI?$FN?$AA@ 1003e600     Comp.obj
 0002:0000060c       ??_C@_0BL@FJID@Undefined?5comparison?5type?5?$AA@ 1003e60c     Comp.obj
 0002:00000628       ??_C@_02GMBL@?$CB?$DN?$AA@ 1003e628     Comp.obj
 0002:0000062c       ??_C@_02NCLD@?$DO?$DN?$AA@ 1003e62c     Comp.obj
 0002:00000630       ??_C@_01FAFK@?$DO?$AA@     1003e630     Comp.obj
 0002:00000634       ??_C@_02PPOG@?$DM?$DN?$AA@ 1003e634     Comp.obj
 0002:00000638       ??_C@_01FHE@?$DM?$AA@      1003e638     Comp.obj
 0002:0000063c       ??_C@_02OJEM@?$DN?$DN?$AA@ 1003e63c     Comp.obj
 0002:00000640       ??_C@_07NBAD@VE?5cell?$AA@ 1003e640     CreateParaStruct.obj
 0002:00000648       ??_C@_0HJ@BEGE@Sorry?4?5The?5total?5?$CD?5timepoints?5ha@ 1003e648     evalshed.obj
 0002:000006c4       ??_C@_0DJ@LGA@?$CFs?7function?3evalsched?4ApplySched@ 1003e6c4     evalshed.obj
 0002:00000700       ??_C@_0CI@OFNA@getstring?5WARNING?3?5line?5not?5full@ 1003e700     getstring.obj
 0002:00000728       __real@8@400dfffe000000000000 1003e728     grand.obj
 0002:00000730       ??_C@_0ED@IAPA@The?5first?5random?5number?5seed?5mus@ 1003e730     grand.obj
 0002:00000774       ??_C@_0DI@IBHE@Call?5the?5init?5routine?5rmarin?$CI?$CJ?5b@ 1003e774     grand.obj
 0002:000007b0       __real@8@3ffefff972474538f000 1003e7b0     grand.obj
 0002:000007b8       __real@8@4010a26c000000000000 1003e7b8     grand.obj
 0002:000007c0       __real@8@400cd890000000000000 1003e7c0     grand.obj
 0002:000007c8       __real@8@4007e700000000000000 1003e7c8     grand.obj
 0002:000007d0       __real@8@40068400000000000000 1003e7d0     grand.obj
 0002:000007d8       __real@8@4005c600000000000000 1003e7d8     grand.obj
 0002:000007e0       __real@8@40068c00000000000000 1003e7e0     grand.obj
 0002:000007e8       __real@8@3ffcaaaaaaaaaa5f9800 1003e7e8     grand.obj
 0002:000007f0       __real@8@3ffea000000000000000 1003e7f0     grand.obj
 0002:000007f8       __real@8@4000c000000000000000 1003e7f8     grand.obj
 0002:00000800       __real@8@3ffc89374bc6a7efa000 1003e800     grand.obj
 0002:00000808       __real@8@4003a400000000000000 1003e808     grand.obj
 0002:00000810       __real@8@4002f4ccccccccccd000 1003e810     grand.obj
 0002:00000818       __real@8@40019333333333333000 1003e818     grand.obj
 0002:00000820       __real@8@40008c7ae147ae147800 1003e820     grand.obj
 0002:00000828       __real@8@4003f000000000000000 1003e828     grand.obj
 0002:00000830       __real@8@c0008000000000000000 1003e830     grand.obj
 0002:00000838       __real@8@3ffefffffffffee68800 1003e838     grand.obj
 0002:00000840       __real@8@4009fa00000000000000 1003e840     grand.obj
 0002:00000848       __real@8@3feea7c5ac471b478800 1003e848     grand.obj
 0002:00000850       __real@8@401cee6b280000000000 1003e850     grand.obj
 0002:00000858       ??_C@_0EE@FCGP@?$CFs?7function?3IncrementActionClaus@ 1003e858     IncrementActionClause.obj
 0002:0000089c       ??_C@_0DM@NADI@?$CFs?7function?3IncrementIFClause?4In@ 1003e89c     IncrementIFClause.obj
 0002:000008d8       ??_C@_0CJ@JOPC@?$CFs?7function?3IncrementRule?4Increm@ 1003e8d8     IncrementRule.obj
 0002:00000904       ??_C@_03MAMC@?$CFlf?$AA@   1003e904     infile.obj
 0002:00000908       ??_C@_02JBML@?$CFc?$AA@    1003e908     infile.obj
 0002:0000090c       ??_C@_0CL@NEEC@?$CFs?7function?3InitDoseFactor?4InitD@ 1003e90c     InitDoseFactor.obj
 0002:00000938       ??_C@_0CL@PKFH@in?5?$FLvector?$FN?3allocation?5failure?5i@ 1003e938     integration.obj
 0002:00000964       ??_C@_0CE@NGGN@in?5?$FLpolint?$FN?3Error?5in?5routine?5pol@ 1003e964     integration.obj
 0002:00000988       ??_C@_0CN@CPCJ@in?5?$FLpgfint?$FN?3Too?5many?5steps?5in?5ro@ 1003e988     integration.obj
 0002:000009b8       __real@8@3ffd8000000000000000 1003e9b8     integration.obj
 0002:000009c0       __real@8@3feb8637bd05af6c6800 1003e9c0     integration.obj
 0002:000009c8       ??_C@_03FAJB@?$CFf?$AA?$AA@ 1003e9c8     InterpretEvents.obj
 0002:000009d0       __real@8@3fe4abcc77118461d000 1003e9d0     InterpretEvents.obj
 0002:000009d8       ??_C@_03MKJP@Any?$AA@      1003e9d8     InterpretEvents.obj
 0002:000009dc       ??_C@_0O@NCME@High?5Toxicity?$AA@ 1003e9dc     InterpretEvents.obj
 0002:000009ec       ??_C@_01PLJA@0?$AA@        1003e9ec     InterpretEvents.obj
 0002:000009f0       ??_C@_0CN@PHDN@?$CFs?7function?3jointpgf?4Do_jointpgf@ 1003e9f0     jointpgf.obj
 0002:00000a20       ??_C@_0CA@ODKA@?5?5for?5itime?5?$DN?5?$CF2d?5?5icond?5?$DN?5?$CF2d?6?$AA@ 1003ea20     jointpgf.obj
 0002:00000a40       ??_C@_0BF@MGNC@Jointpgf?5returns?5?5?$CFg?$AA@ 1003ea40     jointpgf.obj
 0002:00000a58       ??_C@_0CD@BOLC@Jointpgf?3?5itime?5?$DN?5?$CF4d?7icond?5?$DN?5?$CF4@ 1003ea58     jointpgf.obj
 0002:00000a7c       ??_C@_0BN@IJJJ@?7Args?5to?5jointpgf?3?5?5spar?5?$DN?$DN?5?$AA@ 1003ea7c     jointpgf.obj
 0002:00000a9c       ??_C@_0ID@NKFE@Sorry?4?5The?5total?5number?5of?5cell?5@ 1003ea9c     jointpgf.obj
 0002:00000b20       ??_C@_0BO@BFCH@?$CFs?7function?3jointpgf?4InitPgf?6?$AA@ 1003eb20     jointpgf.obj
 0002:00000b40       ??_C@_0CA@MFNM@?$CFs?7function?3jointpgf?4FinishPgf?6?$AA@ 1003eb40     jointpgf.obj
 0002:00000b60       ??_C@_0BK@BNEK@jpgfcond?3?5COND?4dir?5error?6?$AA@ 1003eb60     jpgfcond.obj
 0002:00000b80       __real@8@3fdddbe6fecebdedd800 1003eb80     jpgfen.obj
 0002:00000b88       __real@8@4001c000000000000000 1003eb88     jpgfen.obj
 0002:00000b90       ??_C@_0BK@MMDA@?7culltop?0?5cullbot?3?5?$CFf?0?5?$CFf?$AA@ 1003eb90     jpgfit.obj
 0002:00000bac       ??_C@_0BJ@KJF@?7muttop?0?5mutbot?3?5?$CFf?0?5?$CFf?5?$AA@ 1003ebac     jpgfit.obj
 0002:00000bc8       ??_C@_0BI@HFNM@?7muttop?0?5mutbot?3?5?$CFf?0?5?$CFf?$AA@ 1003ebc8     jpgfit.obj
 0002:00000be0       ??_C@_0CF@FNNP@?7jpgfstep?3?5?5itime?5?$DN?5?$CF4d?7icond?5?$DN?5@ 1003ebe0     jpgfstep.obj
 0002:00000c08       ??_C@_0BC@FKJF@?7jpgfstep?3?5?5after?$AA@ 1003ec08     jpgfstep.obj
 0002:00000c1c       ??_C@_0BD@MPCD@?7jpgfstep?3?5?5before?$AA@ 1003ec1c     jpgfstep.obj
 0002:00000c30       ??_C@_0BL@OPEK@c?3?2oncotcap?2dll?2messages?4c?$AA@ 1003ec30     messages.obj
 0002:00000c4c       ??_C@_0L@KNOB@breaknum?$DM0?$AA@ 1003ec4c     messages.obj
 0002:00000c58       ??_C@_06MNAE@INFO?3?5?$AA@ 1003ec58     messages.obj
 0002:00000c60       ??_C@_0BH@MECM@Do?5you?5want?5to?5break?$DP?5?$AA@ 1003ec60     messages.obj
 0002:00000c78       ??_C@_04DGKO@?6?5?$DN?5?$AA@ 1003ec78     messages.obj
 0002:00000c80       ??_C@_09NLAH@Warning?3?5?$AA@ 1003ec80     messages.obj
 0002:00000c8c       ??_C@_07MKMO@Error?3?5?$AA@ 1003ec8c     messages.obj
 0002:00000c94       ??_C@_0CN@EFEJ@sim?$DN?$CFd?0seed1?$DN?$CFd?0seed2?$DN?$CFd?0seed3?$DN?$CF@ 1003ec94     MultiSim.obj
 0002:00000cc8       __real@8@401effffffff00000000 1003ecc8     MultiSim.obj
 0002:00000cd0       __real@8@400deb02000000000000 1003ecd0     MultiSim.obj
 0002:00000cd8       __real@8@400df4c0000000000000 1003ecd8     MultiSim.obj
 0002:00000ce0       ??_C@_0L@ENBO@?6Multisim?6?$AA@ 1003ece0     MultiSim.obj
 0002:00000cec       ??_C@_0CB@CHA@There?5is?5a?5problem?5to?5open?5file?4@ 1003ecec     MultiSim.obj
 0002:00000d10       ??_C@_01FNLH@a?$AA@        1003ed10     MultiSim.obj
 0002:00000d14       ??_C@_0BA@JFNF@?$CFs?2OncoTcap?4log?$AA@ 1003ed14     MultiSim.obj
 0002:00000d28       __real@8@4001c90fdaa22130f000 1003ed28     norm.obj
 0002:00000d30       ??_C@_04MFG@?$CFlf?6?$AA@  1003ed30     outfile.obj
 0002:00000d38       ??_C@_06JIEI@?6Gomp?6?$AA@ 1003ed38     outfile.obj
 0002:00000d40       ??_C@_0M@NIPL@mutrate?$DN?$CFf?6?$AA@ 1003ed40     outfile.obj
 0002:00000d4c       ??_C@_06EPGC@gr?$DN?$CFf?6?$AA@ 1003ed4c     outfile.obj
 0002:00000d54       ??_C@_06DBFN@dt?$DN?$CFf?6?$AA@ 1003ed54     outfile.obj
 0002:00000d5c       ??_C@_03BNAH@?$CFc?6?$AA@  1003ed5c     outfile.obj
 0002:00000d60       ??_C@_03FBAH@?$CFf?6?$AA@  1003ed60     outfile.obj
 0002:00000d64       ??_C@_03HMFC@?$CFd?6?$AA@  1003ed64     outfile.obj
 0002:00000d68       ??_C@_03HHKO@?$CFs?6?$AA@  1003ed68     outfile.obj
 0002:00000d6c       ??_C@_0DB@BALE@ERROR?5?$CIoutfile?$CJ?3?5?5Can?8t?5open?5?$CC?$CFs@ 1003ed6c     outfile.obj
 0002:00000da0       ??_C@_01LLF@w?$AA@         1003eda0     outfile.obj
 0002:00000da4       ??_C@_0BJ@IBHO@This?5is?5a?5test?5?4par?5file?$AA@ 1003eda4     outfile.obj
 0002:00000dc0       ??_C@_0P@FJPH@?7?7returns?5?5?$CFlf?$AA@ 1003edc0     pgf1.pure.obj
 0002:00000dd0       ??_C@_0BK@FBK@WARNING?3?51?9pgftemp?5?$DN?5?5?$CFe?6?$AA@ 1003edd0     pgf1.pure.obj
 0002:00000dec       ??_C@_0BI@LOFD@WARNING?3?5pgftemp?5?$DN?5?5?$CFe?6?$AA@ 1003edec     pgf1.pure.obj
 0002:00000e04       ??_C@_0IC@OJOB@Division?5by?5zero?5in?5PGF?5engine?5a@ 1003ee04     pgf1.pure.obj
 0002:00000e88       ??_C@_0IC@MHIM@Division?5by?5zero?5in?5PGF?5engine?5a@ 1003ee88     pgf1.pure.obj
 0002:00000f10       __real@8@3f9ba2425ff75e150000 1003ef10     pgf1.pure.obj
 0002:00000f18       ??_C@_0BH@OMGL@?7psi0?0?5psit?3?5?$CF10f?5?$CF10f?$AA@ 1003ef18     pgf1.pure.obj
 0002:00000f30       ??_C@_0IC@OHFM@Division?5by?5zero?5in?5PGF?5engine?5a@ 1003ef30     pgf1.pure.obj
 0002:00000fb4       ??_C@_0IC@OOLP@Division?5by?5zero?5in?5PGF?5engine?5a@ 1003efb4     pgf1.pure.obj
 0002:00001038       ??_C@_0IC@PDMF@Division?5by?5zero?5in?5PGF?5engine?5a@ 1003f038     pgf1.pure.obj
 0002:000010bc       ??_C@_0IC@PEJL@Division?5by?5zero?5in?5PGF?5engine?5a@ 1003f0bc     pgf1.pure.obj
 0002:00001140       ??_C@_0IC@OAAC@Division?5by?5zero?5in?5PGF?5engine?5a@ 1003f140     pgf1.pure.obj
 0002:000011c8       __real@8@3f9ba2425ff75e16c800 1003f1c8     pgf1.pure.obj
 0002:000011d0       ??_C@_0CB@PMBA@?7pgf1?3?5args?5are?5?$CF6d?5?$CF12d?5?$CFlf?5?$CFlf@ 1003f1d0     pgf1.pure.obj
 0002:000011f4       ??_C@_0CK@FMAB@eq10?3?5?5args?5?$CF12f?5?$CF12f?5?$CF12f?5?0?5?5re@ 1003f1f4     pgf1.pure.obj
 0002:00001220       ??_C@_0ID@PLOI@Division?5by?5zero?5in?5PGF?5engine?5a@ 1003f220     pgf1.pure.obj
 0002:000012a8       __real@8@4008af00000000000000 1003f2a8     pgfint.obj
 0002:000012b0       ??_C@_0CI@FBFO@Reading?5default?5parameters?5?$CIPAR?4@ 1003f2b0     pgfmain.obj
 0002:000012d8       ??_C@_0BH@EHFG@Can?8t?5open?5default?4par?$AA@ 1003f2d8     pgfmain.obj
 0002:000012f0       ??_C@_0BL@IBBD@Error?5opening?5default?4par?6?$AA@ 1003f2f0     pgfmain.obj
 0002:0000130c       ??_C@_01LHO@r?$AA@         1003f30c     pgfmain.obj
 0002:00001310       ??_C@_0N@PFMK@?2default?4par?$AA@ 1003f310     pgfmain.obj
 0002:00001320       ??_C@_0BP@LIIL@ERROR?3?5unable?5to?5open?5log?5file?$AA@ 1003f320     pgfmain.obj
 0002:00001340       ??_C@_09IEGA@tread?4dll?$AA@ 1003f340     pgfmain.obj
 0002:0000134c       ??_C@_0BF@COJD@c?3?2tcaplog?2trace?4log?$AA@ 1003f34c     pgfmain.obj
 0002:00001364       ??_C@_0BL@EIOL@ERROR?3?5pgf?4dat?5failed?5open?$AA@ 1003f364     pgfmain.obj
 0002:00001380       ??_C@_08MCAC@?2pgf?4dat?$AA@ 1003f380     pgfmain.obj
 0002:0000138c       ??_C@_08LFNE@?2archive?$AA@ 1003f38c     pgfmain.obj
 0002:00001398       ??_C@_0CC@MOMK@TEMP?5environment?5variable?5not?5se@ 1003f398     pgfmain.obj
 0002:000013bc       ??_C@_08KKBJ@TCAPHOME?$AA@ 1003f3bc     pgfmain.obj
 0002:000013c8       ??_C@_04FEEL@TEMP?$AA@     1003f3c8     pgfmain.obj
 0002:000013d0       ??_C@_0BL@CCKK@?$CFs?7function?3pgfmain?4DoPgf?6?$AA@ 1003f3d0     pgfmain.obj
 0002:000013ec       ??_C@_0BE@FBCJ@?5?5?5?5?5?5ptemp?5?$DN?$DN?5?$CF15f?$AA@ 1003f3ec     pgfxcm.obj
 0002:00001400       ??_C@_0O@DCDD@?7?7eta?5?$DN?$DN?5?$CF15f?$AA@ 1003f400     pgfxcm.obj
 0002:00001410       ??_C@_0BE@IOKM@?5?5?5?5?5?5r2?5?5?5?5?$DN?$DN?5?$CF15f?$AA@ 1003f410     pgfxcm.obj
 0002:00001424       ??_C@_0O@BPHK@?7?7r1?5?5?$DN?$DN?5?$CF15f?$AA@ 1003f424     pgfxcm.obj
 0002:00001434       ??_C@_0BE@HKGD@?5?5?5?5?5?5d?5?5?5?5?5?$DN?$DN?5?$CF15f?$AA@ 1003f434     pgfxcm.obj
 0002:00001448       ??_C@_0O@IGFM@?7?7nu?5?5?$DN?$DN?5?$CF15f?$AA@ 1003f448     pgfxcm.obj
 0002:00001458       ??_C@_0CB@CIEB@?5WARNING?3?5exparg?5?$DO?580?5in?5pgfxcm?6@ 1003f458     pgfxcm.obj
 0002:00001480       __real@8@4005a000000000000000 1003f480     pgfxcm.obj
 0002:00001488       __real@8@40018000000000000000 1003f488     pgfxcm.obj
 0002:00001490       ??_C@_0CD@BCPP@?5WARNING?5?3?51?9marg?5?$DM?50?5in?5pgfxcm?5@ 1003f490     pgfxcm.obj
 0002:000014b4       ??_C@_0CB@LMCL@?5WARNING?5?3?5marg?5?$DM?50?5in?5pgfxcm?5?$CFf@ 1003f4b4     pgfxcm.obj
 0002:000014d8       ??_C@_0CD@PBGI@?5WARNING?5?3?51?9carg?5?$DM?50?5in?5pgfxcm?5@ 1003f4d8     pgfxcm.obj
 0002:000014fc       ??_C@_0CB@FPLM@?5WARNING?5?3?5carg?5?$DM?50?5in?5pgfxcm?5?$CFf@ 1003f4fc     pgfxcm.obj
 0002:00001520       ??_C@_0CD@MHIM@?5WARNING?5?3?51?9xarg?5?$DM?50?5in?5pgfxcm?5@ 1003f520     pgfxcm.obj
 0002:00001544       ??_C@_0CB@GJFI@?5WARNING?5?3?5xarg?5?$DM?50?5in?5pgfxcm?5?$CFf@ 1003f544     pgfxcm.obj
 0002:00001568       ??_C@_07MKLM@?7?7rates?$AA@ 1003f568     pgfxcm.obj
 0002:00001570       ??_C@_0BA@BHPK@?$CF15f?5?$CF15f?5?$CF15f?5?$AA@ 1003f570     pgfxcm.obj
 0002:00001580       ??_C@_0P@FGIK@?7pgfxcm?3?5args?5?$AA@ 1003f580     pgfxcm.obj
 0002:00001590       ??_C@_06DFCG@?$CFs?$CFd?$CFs?$AA@ 1003f590     phaseii.obj
 0002:00001598       ??_C@_0EL@PLOB@Sorry?4?5For?5the?5previous?5input?5va@ 1003f598     phaseii.obj
 0002:000015e4       ??_C@_0EM@FMGC@Value?5for?5?8good?8?5response?5rate?5s@ 1003f5e4     phaseii.obj
 0002:00001630       ??_C@_0DF@BHEC@Value?5for?5?8good?8?5response?5rate?5b@ 1003f630     phaseii.obj
 0002:00001668       ??_C@_0DF@ONJN@Value?5for?5?8poor?8?5response?5rate?5b@ 1003f668     phaseii.obj
 0002:000016a0       ??_C@_0CH@MIGO@Value?5for?5beta?5between?50?5and?50?43@ 1003f6a0     phaseii.obj
 0002:000016c8       ??_C@_0CI@PAML@Value?5for?5alpha?5between?50?5and?50?4@ 1003f6c8     phaseii.obj
 0002:000016f0       __real@8@3ffd9999999999999800 1003f6f0     phaseii.obj
 0002:000016f8       ??_C@_0FA@FAKB@?$CFs?7function?3phaseii?4phaseii_simo@ 1003f6f8     phaseii.obj
 0002:00001748       __real@8@3ffe851eb851eb852000 1003f748     phaseii.obj
 0002:00001750       __real@8@3ffeab851eb851eb8800 1003f750     phaseii.obj
 0002:00001758       __real@8@3ffed70a3d70a3d70800 1003f758     phaseii.obj
 0002:00001760       __real@8@3ffcccccccccccccd000 1003f760     phaseii.obj
 0002:00001768       __real@8@3fff83d70a3d70a3d800 1003f768     phaseii.obj
 0002:00001770       __real@8@3ffc9999999999999800 1003f770     phaseii.obj
 0002:00001778       __real@8@3fffa3d70a3d70a3d800 1003f778     phaseii.obj
 0002:00001780       __real@8@3ffbccccccccccccd000 1003f780     phaseii.obj
 0002:00001788       __real@8@3fffd28f5c28f5c29000 1003f788     phaseii.obj
 0002:00001790       __real@8@3ffaccccccccccccd000 1003f790     phaseii.obj
 0002:00001798       ??_C@_02DILL@?$CFs?$AA@    1003f798     PlotHandler.obj
 0002:0000179c       ??_C@_03FELK@?1?$CFs?$AA@  1003f79c     PlotHandler.obj
 0002:000017a0       ??_C@_0BA@NEIH@Total?5Cellcount?$AA@ 1003f7a0     PlotHandler.obj
 0002:000017b0       ??_C@_0EG@BLDA@setupPlotHandler?3?5Out?5of?5memory?0@ 1003f7b0     PlotHandler.obj
 0002:000017f8       ??_C@_0CK@IIEJ@?$CFs?7function?3PlotHandler?4setupPlo@ 1003f7f8     PlotHandler.obj
 0002:00001824       ??_C@_0EL@FHHO@?$CFs?7function?3PlotHandler?4getCellL@ 1003f824     PlotHandler.obj
 0002:00001870       __real@8@3ffee666666666666800 1003f870     pois_rep.obj
 0002:00001878       __real@8@4000c90fdaa22130f000 1003f878     pois_rep.obj
 0002:00001880       __real@8@4002c000000000000000 1003f880     pois_rep.obj
 0002:00001888       __real@8@4000a06c98ffb1383000 1003f888     pois_rep.obj
 0002:00001890       __real@8@4001b000000000000000 1003f890     pois_rep.obj
 0002:00001898       ??_C@_0BD@LFGJ@?6?7Action?5Clauses?3?6?$AA@ 1003f898     printrulestofile.obj
 0002:000018ac       ??_C@_0O@OHCJ@?7If?5Clauses?3?6?$AA@ 1003f8ac     printrulestofile.obj
 0002:000018bc       ??_C@_0M@CGFO@?6?6Rule?5?$CD?$CFs?6?$AA@ 1003f8bc     printrulestofile.obj
 0002:000018c8       ??_C@_0L@IALC@?2rules?4out?$AA@ 1003f8c8     printrulestofile.obj
 0002:000018d4       ??_C@_0CP@CINO@?$CFs?7function?3printrulestofile?4pri@ 1003f8d4     printrulestofile.obj
 0002:00001904       ??_C@_04PFNK@?7?7?$CFs?$AA@ 1003f904     printrulestofile.obj
 0002:0000190c       ??_C@_0BB@MHHL@RemoveContinDrug?$AA@ 1003f90c     printrulestofile.obj
 0002:00001920       ??_C@_0BA@IHFK@ApplyContinDrug?$AA@ 1003f920     printrulestofile.obj
 0002:00001930       ??_C@_0BJ@NCPD@ApplyRegimenIntoSchedule?$AA@ 1003f930     printrulestofile.obj
 0002:0000194c       ??_C@_0N@IJGE@AddtoRegimen?$AA@ 1003f94c     printrulestofile.obj
 0002:0000195c       ??_C@_0P@JPDE@ClearBBRegimen?$AA@ 1003f95c     printrulestofile.obj
 0002:0000196c       ??_C@_02JPOF@Ne?$AA@       1003f96c     printrulestofile.obj
 0002:00001970       ??_C@_0M@HPMJ@RandLogNorm?$AA@ 1003f970     printrulestofile.obj
 0002:0000197c       ??_C@_03FJCL@Now?$AA@      1003f97c     printrulestofile.obj
 0002:00001980       ??_C@_03IDNE@Gte?$AA@      1003f980     printrulestofile.obj
 0002:00001984       ??_C@_03OFFK@Lte?$AA@      1003f984     printrulestofile.obj
 0002:00001988       ??_C@_02DPPM@Gt?$AA@       1003f988     printrulestofile.obj
 0002:0000198c       ??_C@_02LBFH@Lt?$AA@       1003f98c     printrulestofile.obj
 0002:00001990       ??_C@_02BCGC@Eq?$AA@       1003f990     printrulestofile.obj
 0002:00001994       ??_C@_03DHJM@And?$AA@      1003f994     printrulestofile.obj
 0002:00001998       ??_C@_03KPJN@Add?$AA@      1003f998     printrulestofile.obj
 0002:0000199c       ??_C@_03JFAA@Set?$AA@      1003f99c     printrulestofile.obj
 0002:000019a0       ??_C@_04PDAJ@SetD?$AA@     1003f9a0     printrulestofile.obj
 0002:000019a8       ??_C@_04MHL@SetB?$AA@      1003f9a8     printrulestofile.obj
 0002:000019b0       ??_C@_04KHHK@SetI?$AA@     1003f9b0     printrulestofile.obj
 0002:000019b8       ??_C@_05OHMH@?$CI?$CFd?$CJ?6?$AA@ 1003f9b8     printrulestofile.obj
 0002:000019c0       ??_C@_0BN@LDMP@?$CI?$CFd?0?5?$CFd?0?5?$CFd?0?5?$CFlf?0?5?$CFd?0?5?$CFlf?5?$CJ?6?$AA@ 1003f9c0     printrulestofile.obj
 0002:000019e0       ??_C@_03KFFK@?$CI?$CJ?6?$AA@ 1003f9e0     printrulestofile.obj
 0002:000019e4       ??_C@_07DOPK@?$CI?$FL?$CFs?$FN?$CJ?6?$AA@ 1003f9e4     printrulestofile.obj
 0002:000019ec       ??_C@_0BE@KFPP@?$CI?$FL?$CFs?$FN?0?5?$FL?$CFs?$FN?0?5?$FL?$CFs?$FN?$CJ?6?$AA@ 1003f9ec     printrulestofile.obj
 0002:00001a00       ??_C@_0N@HCOB@?$CI?$FL?$CFs?$FN?0?5?$CFlf?$CJ?6?$AA@ 1003fa00     printrulestofile.obj
 0002:00001a10       ??_C@_0O@OPKI@?$CI?$FL?$CFs?$FN?0?5?$FL?$CFs?$FN?$CJ?6?$AA@ 1003fa10     printrulestofile.obj
 0002:00001a20       ??_C@_04HIGB@True?$AA@     1003fa20     printrulestofile.obj
 0002:00001a28       ??_C@_05NEME@False?$AA@    1003fa28     printrulestofile.obj
 0002:00001a30       ??_C@_0M@DENA@?$CI?$FL?$CFs?$FN?0?5?$CFd?$CJ?6?$AA@ 1003fa30     printrulestofile.obj
 0002:00001a3c       ??_C@_0DN@HNGO@?5?5?5?5?5?5probeprob?3?5if?5you?5add?5?$CF6f?5@ 1003fa3c     probeprob.obj
 0002:00001a7c       ??_C@_0N@DGLM@?5?$DN?50?$HN?5?5?$CF12f?6?$AA@ 1003fa7c     probzeros.obj
 0002:00001a8c       ??_C@_0BA@JDKL@pr?5?$HL?$CD?5of?5type?5?5?$AA@ 1003fa8c     probzeros.obj
 0002:00001a9c       ??_C@_0BD@OJKJ@?$FLprobzeros?$FN?5nt2?5?$CFd?$AA@ 1003fa9c     probzeros.obj
 0002:00001ab0       ??_C@_0BO@DPFD@?5?5?5?5?5?5pr?5?$HLtotal?5?$DN?50?$HN?5?5?5?5?$CF12f?6?$AA@ 1003fab0     probzeros.obj
 0002:00001ad0       ??_C@_0BD@IGFP@?$FLprobzeros?$FN?5nt1?5?$CFd?$AA@ 1003fad0     probzeros.obj
 0002:00001ae4       ??_C@_0BD@BJED@?5At?5time?5?5?5?5?$CF2?44f?6?$AA@ 1003fae4     probzeros.obj
 0002:00001af8       ??_C@_0BE@MDBN@?5PROB?5?$CIZERO?5cells?$CJ?6?$AA@ 1003faf8     probzeros.obj
 0002:00001b0c       ??_C@_0CH@JGAF@?5is?5not?5of?5type?5Double?4?5?$FLRandLog@ 1003fb0c     RandLogNorm.obj
 0002:00001b34       ??_C@_0DH@POFM@?5not?5found?5during?5RandLogNorm?5fu@ 1003fb34     RandLogNorm.obj
 0002:00001b6c       ??_C@_02DAG@DS?$AA@        1003fb6c     Readrul.obj
 0002:00001b70       ??_C@_02GCFD@CS?$AA@       1003fb70     Readrul.obj
 0002:00001b74       ??_C@_02FFAE@DE?$AA@       1003fb74     Readrul.obj
 0002:00001b78       ??_C@_02GEJB@PO?$AA@       1003fb78     Readrul.obj
 0002:00001b7c       ??_C@_03OPOI@NEG?$AA@      1003fb7c     Readrul.obj
 0002:00001b80       ??_C@_03GDIA@PGP?$AA@      1003fb80     Readrul.obj
 0002:00001b84       ??_C@_02FMKG@MA?$AA@       1003fb84     Readrul.obj
 0002:00001b88       ??_C@_02JCGO@GR?$AA@       1003fb88     Readrul.obj
 0002:00001b8c       ??_C@_02GDMF@CY?$AA@       1003fb8c     Readrul.obj
 0002:00001b90       ??_C@_02HNJA@KR?$AA@       1003fb90     Readrul.obj
 0002:00001b94       ??_C@_02DFMH@CO?$AA@       1003fb94     Readrul.obj
 0002:00001b98       ??_C@_02CBBM@BT?$AA@       1003fb98     Readrul.obj
 0002:00001b9c       ??_C@_02KGP@MR?$AA@        1003fb9c     Readrul.obj
 0002:00001ba0       ??_C@_02KJJB@DR?$AA@       1003fba0     Readrul.obj
 0002:00001ba4       ??_C@_01FJJO@R?$AA@        1003fba4     Readrul.obj
 0002:00001ba8       ??_C@_01FLCE@L?$AA@        1003fba8     Readrul.obj
 0002:00001bac       ??_C@_01FKHJ@C?$AA@        1003fbac     Readrul.obj
 0002:00001bb0       ??_C@_01OMB@K?$AA@         1003fbb0     Readrul.obj
 0002:00001bb4       ??_C@_02DIPJ@GS?$AA@       1003fbb4     Readrul.obj
 0002:00001bb8       ??_C@_02MHEA@GP?$AA@       1003fbb8     Readrul.obj
 0002:00001bbc       ??_C@_02DHLG@CT?$AA@       1003fbbc     Readrul.obj
 0002:00001bc0       ??_C@_02JGNN@TU?$AA@       1003fbc0     Readrul.obj
 0002:00001bc4       ??_C@_02FGOD@DT?$AA@       1003fbc4     Readrul.obj
 0002:00001bc8       ??_C@_02HOHH@KC?$AA@       1003fbc8     Readrul.obj
 0002:00001bcc       ??_C@_02NFLN@KM?$AA@       1003fbcc     Readrul.obj
 0002:00001bd0       ??_C@_0DJ@GPFC@?6WARNING?5?$CIread_rule_file?$CJ?3?5XtMal@ 1003fbd0     Readrul.obj
 0002:00001c0c       ??_C@_0N@PKNE@Cant?8t?5read?5?$AA@ 1003fc0c     Readrul.obj
 0002:00001c1c       ??_C@_0BA@CJNJ@Can?8t?5read?5?$CFs?4?6?$AA@ 1003fc1c     Readrul.obj
 0002:00001c2c       ??_C@_0DD@NKPG@?6WARNING?5?$CIread_rule_file?$CJ?3?5No?5fi@ 1003fc2c     Readrul.obj
 0002:00001c60       ??_C@_0L@OCPC@?6?$CF28s?$CF?914s?$AA@ 1003fc60     Readrul.obj
 0002:00001c6c       ??_C@_0L@PEHK@?6?$CF14s?$CF?914s?$AA@ 1003fc6c     Readrul.obj
 0002:00001c78       ??_C@_05GBMD@?$CF?914s?$AA@ 1003fc78     Readrul.obj
 0002:00001c80       ??_C@_07MOAE@?6?6?$CF?914s?$AA@ 1003fc80     Readrul.obj
 0002:00001c88       ??_C@_0CE@GEFO@CLASS?5NAME?7?7LEVEL?5NAME?5?5?5?5RULE?5N@ 1003fc88     Readrul.obj
 0002:00001cac       ??_C@_08CLGC@?$CFs?$CFd?$CFd?$CFd?$AA@ 1003fcac     Readrul.obj
 0002:00001cb8       ??_C@_05KLCC@?1?$CFs?$CFd?$AA@ 1003fcb8     Readrul.obj
 0002:00001cc0       ??_C@_04MOFI@?$CFs?$CFd?$AA@ 1003fcc0     Readrul.obj
 0002:00001cc8       ??_C@_0BM@OAOB@Base?5Death?5Time?5Switch?$DN?5?$CFf?6?$AA@ 1003fcc8     Readrul.obj
 0002:00001ce4       ??_C@_0BG@GHKN@Base?5Death?5Time?5?$DN?5?$CFf?6?$AA@ 1003fce4     Readrul.obj
 0002:00001cfc       ??_C@_0BJ@KKIB@Base?5Doubling?5Time?5?$DN?5?$CFf?6?$AA@ 1003fcfc     Readrul.obj
 0002:00001d18       ??_C@_0BP@ONCO@Base?5Cycling?5Time?5Switch?5?$DN?5?$CFf?6?$AA@ 1003fd18     Readrul.obj
 0002:00001d38       ??_C@_0BI@LLH@Base?5Cycling?5Time?5?$DN?5?$CFf?6?$AA@ 1003fd38     Readrul.obj
 0002:00001d50       ??_C@_0BJ@FKOI@?5Operator?5not?5recognized?$AA@ 1003fd50     Readrul.obj
 0002:00001d6c       ??_C@_0BG@IKKF@Bad?5Gompertz?5parseKey?$AA@ 1003fd6c     Readrul.obj
 0002:00001d84       ??_C@_0BB@PAAM@Unknown?5Rule?5Key?$AA@ 1003fd84     Readrul.obj
 0002:00001d98       ??_C@_0N@GLPE@Bad?5operator?$AA@ 1003fd98     Readrul.obj
 0002:00001da8       ??_C@_0O@LOAN@Key?5not?5found?$AA@ 1003fda8     Readrul.obj
 0002:00001db8       ??_C@_0CL@NJFF@Gompertz?5rule?5is?5applied?5an?5inva@ 1003fdb8     Readrul.obj
 0002:00001de4       ??_C@_0CA@EPJK@destination?5levelname?5not?5found?$AA@ 1003fde4     Readrul.obj
 0002:00001e04       ??_C@_09OBAP@Dyn?4_Het?4?$AA@ 1003fe04     Readrul.obj
 0002:00001e10       ??_C@_0BF@IECA@Rule?5Key?5not?5matched?$AA@ 1003fe10     Readrul.obj
 0002:00001e28       ??_C@_02NLBE@ma?$AA@       1003fe28     Readrul.obj
 0002:00001e2c       ??_C@_0BP@BDE@MAXTYPES?5is?5not?5large?5enough?4?6?$AA@ 1003fe2c     Readrul.obj
 0002:00001e4c       ??_C@_0DK@DGDH@unknown?5key?5word?5?$CFs?5and?5?$CFs?5on?5li@ 1003fe4c     Readrul.obj
 0002:00001e88       ??_C@_0BN@KAJ@WARNING?5?$CIparse_base_model?$CJ?3?5?$AA@ 1003fe88     Readrul.obj
 0002:00001ea8       ??_C@_02BGPF@?$DN?$DO?$AA@ 1003fea8     Readrul.obj
 0002:00001eac       ??_C@_0BG@MJHC@?2parse_base_model?4out?$AA@ 1003feac     Readrul.obj
 0002:00001ec4       ??_C@_0CE@PPIN@One?5of?5the?5VE?5rule?5will?5be?5ignor@ 1003fec4     Readrul.obj
 0002:00001ee8       ??_C@_01KPOD@?$DN?$AA@     1003fee8     Readrul.obj
 0002:00001eec       ??_C@_0BP@IEPJ@?$CFs?7function?3Readrul?4ResetEnvir?$AA@ 1003feec     Readrul.obj
 0002:00001f0c       ??_C@_0DI@EMGG@Name?5not?5found?0?5environment?5list@ 1003ff0c     Readrul.obj
 0002:00001f44       ??_C@_0DM@PDMG@?$CFs?7function?3Readrul?4SetEnvir?7nam@ 1003ff44     Readrul.obj
 0002:00001f80       ??_C@_01FDHG@?$CK?$AA@     1003ff80     Readrul.obj
 0002:00001f84       ??_C@_03HFEJ@and?$AA@      1003ff84     Readrul.obj
 0002:00001f88       ??_C@_04KMDL@Then?$AA@     1003ff88     Readrul.obj
 0002:00001f90       ??_C@_04GJFM@THEN?$AA@     1003ff90     Readrul.obj
 0002:00001f98       ??_C@_04GHJ@then?$AA@      1003ff98     Readrul.obj
 0002:00001fa0       ??_C@_05PGGH@Level?$AA@    1003ffa0     Readrul.obj
 0002:00001fa8       ??_C@_05LCAF@Class?$AA@    1003ffa8     Readrul.obj
 0002:00001fb0       ??_C@_03IDJI@Env?$AA@      1003ffb0     Readrul.obj
 0002:00001fb4       ??_C@_01FIMD@?$FN?$AA@     1003ffb4     Readrul.obj
 0002:00001fb8       ??_C@_01KHLB@?$FL?$AA@     1003ffb8     Readrul.obj
 0002:00001fbc       ??_C@_0M@MODF@?5?3?5?5?$CFf?5?5?$DN?$DN?$DO?$AA@ 1003ffbc     realprompt.obj
 0002:00001fc8       ??_C@_0DM@GNCM@Error?3?5Can?8t?5get?5Treatsim?5Home?5d@ 1003ffc8     registry.obj
 0002:00002004       ??_C@_04OGPG@Home?$AA@     10040004     registry.obj
 0002:0000200c       ??_C@_0BH@MFAF@SOFTWARE?2UPCI?2OncoTCap?$AA@ 1004000c     registry.obj
 0002:00002024       ??_C@_0CD@EFLD@Error?3?5Can?8t?5find?5program?5versio@ 10040024     registry.obj
 0002:00002048       ??_C@_0L@BIAF@Version?5?$DN?5?$AA@ 10040048     registry.obj
 0002:00002054       ??_C@_0CK@CCPG@?0?5is?5incompatable?5with?6installed@ 10040054     registry.obj
 0002:00002080       ??_C@_0N@CML@DLL?5version?5?$AA@ 10040080     registry.obj
 0002:00002090       ??_C@_03CCHJ@1?43?$AA@     10040090     registry.obj
 0002:00002094       ??_C@_07MNFD@Version?$AA@  10040094     registry.obj
 0002:0000209c       ??_C@_0BH@DBCE@SOFTWARE?2Tcap?2Treatsim?$AA@ 1004009c     registry.obj
 0002:000020b4       ??_C@_01FMOK@n?$AA@        100400b4     RemoveTreatments.obj
 0002:000020b8       ??_C@_0BH@FHIH@RecurrenceJustHappened?$AA@ 100400b8     ResetBBEveryDeltaT.obj
 0002:000020d0       ??_C@_0BN@BKHO@PrimaryDiagnosisJustHappened?$AA@ 100400d0     ResetBBEveryDeltaT.obj
 0002:000020f0       ??_C@_04LNAG@TRUE?$AA@     100400f0     ResetBBEveryDeltaT.obj
 0002:000020f8       ??_C@_0CD@JEAG@?$CFs?7function?3ResetCellP?4ResetCell@ 100400f8     ResetCellP.obj
 0002:0000211c       ??_C@_0CD@NDMB@?$CFs?7function?3ResetCellQ?4ResetCell@ 1004011c     ResetCellQ.obj
 0002:00002140       ??_C@_0CN@BPNF@?$CFs?7function?3ResetMultiCellP?4Rese@ 10040140     ResetMultiCellP.obj
 0002:00002170       ??_C@_0FP@JOHH@?$CFs?7function?3SendArgs?4SendArgsI?7r@ 10040170     SendArgs.obj
 0002:000021d0       ??_C@_0FP@FGCF@?$CFs?7function?3SendArgs?4SendArgsB?7r@ 100401d0     SendArgs.obj
 0002:00002230       ??_C@_0GB@HNCI@?$CFs?7function?3SendArgs?4SendArgsD?7r@ 10040230     SendArgs.obj
 0002:00002294       ??_C@_0FP@BMKC@?$CFs?7function?3SendArgs?4SendArgsC?7r@ 10040294     SendArgs.obj
 0002:000022f4       ??_C@_0FN@IMBG@?$CFs?7function?3SendFunction?4SendFun@ 100402f4     SendFunction.obj
 0002:00002354       ??_C@_0CH@IOIM@?5not?5found?5during?5SET?5function?4?5@ 10040354     Set.obj
 0002:0000237c       ??_C@_05LLOB@FALSE?$AA@    1004037c     SetBBForPatient.obj
 0002:00002384       ??_C@_0CB@CICH@?5?5?5?5?5?5mutsum?$CIiindex?0nowenvl?$CJ?5?5?$CFf@ 10040384     setrates.obj
 0002:000023a8       ??_C@_0BC@HMGE@?5?5?5?5?5?5hazMig?5?5?5?$CFf?$AA@ 100403a8     setrates.obj
 0002:000023bc       ??_C@_0BD@FFNN@?5?5?5?5?5?5hazConv?5?5?5?$CFf?$AA@ 100403bc     setrates.obj
 0002:000023d0       ??_C@_0CI@OAKO@?5setrates?3?5deathrate?5?$FL?$CF3d?$FN?$DN?$DN?5?$CFf?5@ 100403d0     setrates.obj
 0002:000023f8       ??_C@_0CH@EDNG@?5setrates?3?5growrate?5?$FL?$CF3d?$FN?$DN?$DN?5?$CFf?5?5@ 100403f8     setrates.obj
 0002:00002420       ??_C@_0CJ@PECE@?5setrates?3?5hazMitosis?5?$FL?$CF3d?$FN?$DN?$DN?5?$CFf@ 10040420     setrates.obj
 0002:0000244c       ??_C@_0CE@BJCL@?5?5?5?5?5?5WARNING?3?5negative?5death?5ra@ 1004044c     setrates.obj
 0002:00002470       __real@8@3ffeb17217f78fe66000 10040470     setrates.obj
 0002:00002478       ??_C@_0CK@IBIH@?$CFs?7function?3SetSpeed?4SetSpeed?7ne@ 10040478     SetSpeed.obj
 0002:000024a4       ??_C@_0BB@LAIA@Error?5?$CB?$CB?$CB?$CB?$CB?5?$CFs?5?6?$AA@ 100404a4     strings.obj
 0002:000024b8       ??_C@_0BD@MFDB@Warning?5?$CB?$CB?$CB?$CB?$CB?5?$CFs?5?6?$AA@ 100404b8     strings.obj
 0002:000024cc       ??_C@_0CH@HNEE@?6seed1?$DN?$CFd?0seed2?$DN?$CFd?0seed3?$DN?$CFd?0Tota@ 100404cc     ThdCellp.obj
 0002:000024f4       ??_C@_0DM@HGBL@?$CFs?7function?3ThdCellp?4OrganMet?7Lo@ 100404f4     ThdCellp.obj
 0002:00002530       ??_C@_0EG@IIPM@?$CFs?7function?3ThdMultiCellP?4OrganM@ 10040530     ThdMultiCellP.obj
 0002:00002578       ??_C@_05JBDM@?5?5?5?91?$AA@ 10040578     timecours.obj
 0002:00002580       __real@8@3ffdbc5ab1b0ca5f4800 10040580     timecours.obj
 0002:00002588       ??_C@_0BM@NPEB@?$CIactual?5prob?5achieved?5?$CF10f?$CJ?$AA@ 10040588     timecours.obj
 0002:000025a4       ??_C@_0N@FGGC@?7?7?7?5?5?5?5?5?5?7?7?7?$AA@ 100405a4     timecours.obj
 0002:000025b8       __real@8@3ff8a3d70a3d70a3d800 100405b8     timecours.obj
 0002:000025c0       ??_C@_05CLEL@?5?$CF15e?$AA@ 100405c0     timecours.obj
 0002:000025c8       __real@8@3ffefffffe5280d65800 100405c8     timecours.obj
 0002:000025d0       __real@8@3fe7d6bf94d5e57a4000 100405d0     timecours.obj
 0002:000025d8       ??_C@_07LCHC@?5?$CF15?46f?$AA@ 100405d8     timecours.obj
 0002:000025e0       ??_C@_07FIMC@?5?$CF10?42f?$AA@ 100405e0     timecours.obj
 0002:000025e8       ??_C@_04LKNH@?$CFc?$CFc?$AA@ 100405e8     timecours.obj
 0002:000025f0       ??_C@_0BA@ECF@?5?5?5?5?5Avg?5if?5?$DO?50?$AA@ 100405f0     timecours.obj
 0002:00002600       ??_C@_0BB@IEJC@?5?5?5?5?5Avg?5if?5?$DO?50?6?$AA@ 10040600     timecours.obj
 0002:00002614       ??_C@_0BE@JKIG@?5?5?5?5?5?5?5?5Avg?5?$CD?5cells?$AA@ 10040614     timecours.obj
 0002:00002628       ??_C@_0M@COGD@?5?5?5?5?5?$CD?5logs?$AA@ 10040628     timecours.obj
 0002:00002634       ??_C@_0P@EIJB@?7Pr?5?$CIno?5cells?$CJ?$AA@ 10040634     timecours.obj
 0002:00002644       ??_C@_0L@DGPM@?5?5?5?5?5?5Time?$AA@ 10040644     timecours.obj
 0002:00002650       ??_C@_0N@BLPE@?5TIMECOURSE?6?$AA@ 10040650     timecours.obj
 0002:00002660       ??_C@_0BL@PNCN@?5Minimum?5evaluation?5time?3?5?$AA@ 10040660     timecours.obj
 0002:0000267c       ??_C@_0BI@EJDL@?$CFs?7function?3timecourse?6?$AA@ 1004067c     timecours.obj
 0002:00002694       ??_C@_0DB@HIGB@?$CFs?7function?3timecourse?4Do_Timeco@ 10040694     timecours.obj
 0002:000026c8       ??_C@_0BF@MAND@?5?$CFg?5?5?5at?5time?5?$CF2?42f?6?$AA@ 100406c8     typeconds.obj
 0002:000026e0       ??_C@_0O@HMLM@?6?5?5?5?5?5?5?5?5?5?5?5?5?$AA@ 100406e0     typeconds.obj
 0002:000026f0       ??_C@_03ELMM@?5?$CL?5?$AA@ 100406f0     typeconds.obj
 0002:000026f4       ??_C@_0BI@DK@?5?5?5?5?5?5?5?5?5?5?5?5Subpop?8n?3?5?5?$AA@ 100406f4     typeconds.obj
 0002:0000270c       ??_C@_0BD@EHGG@?7Conditioning?5on?3?6?$AA@ 1004070c     typeconds.obj
 0002:00002720       ??_C@_02GIEM@?0?5?$AA@     10040720     typemask.obj
 0002:00002724       ??_C@_0CC@HKPE@?7For?5cells?5of?5these?5celltype?$CIs?$CJ?3@ 10040724     typemask.obj
 0002:00002748       ??_C@_0M@KLHL@?$CI?$CF2d?$CJ?5?$CF7?48f?$AA@ 10040748     typevec.obj
 0002:00002754       ??_C@_01POCP@?7?$AA@       10040754     typevec.obj
 0002:00002758       ??_C@_0BM@BPEH@typevec?3ERROR?3?5ntypes?5?$DN?5?$CFd?6?$AA@ 10040758     typevec.obj
 0002:00002778       __real@8@c005c600000000000000 10040778     vbc.obj
 0002:00002780       ??_C@_0M@HEBI@dfatanytime?$AA@ 10040780     vbc.obj
 0002:0000278c       ??_C@_02OMFL@n1?$AA@       1004078c     vbc.obj
 0002:00002790       ??_C@_02GJAM@r1?$AA@       10040790     vbc.obj
 0002:00002794       ??_C@_09GMI@eventtime?$AA@ 10040794     vbc.obj
 0002:000027a0       ??_C@_09BDOP@cellcount?$AA@ 100407a0     vbc.obj
 0002:000027ac       ??_C@_0BF@EKHE@timecourse?4avggtzero?$AA@ 100407ac     vbc.obj
 0002:000027c4       ??_C@_0BE@DNEM@timecourse?4avgcells?$AA@ 100407c4     vbc.obj
 0002:000027d8       ??_C@_0BA@IIHK@timecourse?4logs?$AA@ 100407d8     vbc.obj
 0002:000027e8       ??_C@_0O@LCAM@timecourse?4pr?$AA@ 100407e8     vbc.obj
 0002:000027f8       ??_C@_0N@NIOI@timecourse?4t?$AA@ 100407f8     vbc.obj
 0002:00002808       ??_C@_08NEOM@celltime?$AA@ 10040808     vbc.obj
 0002:00002814       ??_C@_08LPMC@timesurv?$AA@ 10040814     vbc.obj
 0002:00002820       ??_C@_08DJBC@timekill?$AA@ 10040820     vbc.obj
 0002:0000282c       ??_C@_08OCPL@drugkill?$AA@ 1004082c     vbc.obj
 0002:00002838       ??_C@_07JDMJ@timevec?$AA@  10040838     vbc.obj
 0002:00002840       ??_C@_07JBJH@mutrate?$AA@  10040840     vbc.obj
 0002:00002848       ??_C@_08PBK@growrate?$AA@  10040848     vbc.obj
 0002:00002854       ??_C@_09ILHB@birthrate?$AA@ 10040854     vbc.obj
 0002:00002860       ??_C@_0L@DPGA@doubletime?$AA@ 10040860     vbc.obj
 0002:0000286c       ??_C@_06IHCC@deltaT?$AA@   1004086c     vbc.obj
 0002:00002874       ??_C@_07GPMK@simtime?$AA@  10040874     vbc.obj
 0002:0000287c       ??_C@_09FMII@cycletime?$AA@ 1004087c     vbc.obj
 0002:00002888       ??_C@_0DG@CHCO@?$CFs?7function?3vbc?4peekd?7variablena@ 10040888     vbc.obj
 0002:000028c0       ??_C@_0BB@NPIH@statusvarinitval?$AA@ 100408c0     vbc.obj
 0002:000028d4       ??_C@_0BE@BPMK@courseagentapptimes?$AA@ 100408d4     vbc.obj
 0002:000028e8       ??_C@_0BA@HJPG@courseagentdose?$AA@ 100408e8     vbc.obj
 0002:000028f8       ??_C@_0BB@FJLM@cmbagentapptimes?$AA@ 100408f8     vbc.obj
 0002:0000290c       ??_C@_0N@FECP@cmbagentdose?$AA@ 1004090c     vbc.obj
 0002:0000291c       ??_C@_0N@PDNB@regstarttime?$AA@ 1004091c     vbc.obj
 0002:0000292c       ??_C@_0BB@GBDN@treatappfulldose?$AA@ 1004092c     vbc.obj
 0002:00002940       ??_C@_0N@KHOK@treatappdose?$AA@ 10040940     vbc.obj
 0002:00002950       ??_C@_0N@LGLO@treatapptime?$AA@ 10040950     vbc.obj
 0002:00002960       ??_C@_06FJLF@ICprob?$AA@   10040960     vbc.obj
 0002:00002968       ??_C@_08GPJL@doselist?$AA@ 10040968     vbc.obj
 0002:00002974       ??_C@_0BB@FOHO@ctmaxprogression?$AA@ 10040974     vbc.obj
 0002:00002988       ??_C@_0BA@KHBE@ctttoxreduction?$AA@ 10040988     vbc.obj
 0002:00002998       ??_C@_08PGAL@ctttdose?$AA@ 10040998     vbc.obj
 0002:000029a4       ??_C@_08OHFP@cttttime?$AA@ 100409a4     vbc.obj
 0002:000029b0       ??_C@_0P@MILA@initCellVector?$AA@ 100409b0     vbc.obj
 0002:000029c0       ??_C@_02GCJI@CV?$AA@       100409c0     vbc.obj
 0002:000029c4       ??_C@_09CLCG@InitTotal?$AA@ 100409c4     vbc.obj
 0002:000029d0       ??_C@_08NHAA@condtime?$AA@ 100409d0     vbc.obj
 0002:000029dc       ??_C@_0L@PJNF@toxrestime?$AA@ 100409dc     vbc.obj
 0002:000029e8       ??_C@_07FDBL@toxprob?$AA@  100409e8     vbc.obj
 0002:000029f0       ??_C@_09PNOL@deathrate?$AA@ 100409f0     vbc.obj
 0002:000029fc       ??_C@_0EF@ELFO@?$CFs?7function?3vbc?4poked?7variablena@ 100409fc     vbc.obj
 0002:00002a44       ??_C@_0FD@ELBH@?$CFs?7function?3vbc?4pokedosefactor?7d@ 10040a44     vbc.obj
 0002:00002a98       ??_C@_0N@ELFC@treatidx?5?$DO?52?$AA@ 10040a98     vbc.obj
 0002:00002aa8       __real@8@3fe189705f4136b4a800 10040aa8     vbc.obj
 0002:00002ab0       ??_C@_0CO@IBDH@?$CFs?7function?3vbc?4peekdfatanytime?7@ 10040ab0     vbc.obj
 0002:00002ae0       ??_C@_0DH@IEKA@?$CFs?7function?3vbc?4peekdosefactor?7d@ 10040ae0     vbc.obj
 0002:00002b18       ??_C@_0L@PNCD@plotoption?$AA@ 10040b18     vbc.obj
 0002:00002b24       ??_C@_0N@DLA@subsetoption?$AA@ 10040b24     vbc.obj
 0002:00002b34       ??_C@_0N@MGFL@numplotlines?$AA@ 10040b34     vbc.obj
 0002:00002b44       ??_C@_0N@KD@plotproperty?$AA@ 10040b44     vbc.obj
 0002:00002b54       ??_C@_0BA@EFIE@plotsubsetlevel?$AA@ 10040b54     vbc.obj
 0002:00002b64       ??_C@_0BA@BOG@plotsubsetclass?$AA@ 10040b64     vbc.obj
 0002:00002b74       ??_C@_0BA@LFHI@numplotproperty?$AA@ 10040b74     vbc.obj
 0002:00002b84       ??_C@_0O@OMNA@numplotsubset?$AA@ 10040b84     vbc.obj
 0002:00002b94       ??_C@_08BEBI@ranseed3?$AA@ 10040b94     vbc.obj
 0002:00002ba0       ??_C@_08LOIP@ranseed2?$AA@ 10040ba0     vbc.obj
 0002:00002bac       ??_C@_08EBDG@ranseed1?$AA@ 10040bac     vbc.obj
 0002:00002bb8       ??_C@_0N@PEJL@ntcoursedata?$AA@ 10040bb8     vbc.obj
 0002:00002bc8       ??_C@_09LEFP@eventtype?$AA@ 10040bc8     vbc.obj
 0002:00002bd4       ??_C@_07CPCI@nevents?$AA@  10040bd4     vbc.obj
 0002:00002bdc       ??_C@_06BBIF@nallts?$AA@   10040bdc     vbc.obj
 0002:00002be4       ??_C@_09JAFJ@no_levels?$AA@ 10040be4     vbc.obj
 0002:00002bf0       ??_C@_0BC@NDGK@Number_of_Classes?$AA@ 10040bf0     vbc.obj
 0002:00002c04       ??_C@_06FDNN@ntypes?$AA@   10040c04     vbc.obj
 0002:00002c0c       ??_C@_0DG@OFLD@?$CFs?7function?3vbc?4peeki?7variablena@ 10040c0c     vbc.obj
 0002:00002c44       ??_C@_0L@DOKB@cellpitime?$AA@ 10040c44     vbc.obj
 0002:00002c50       ??_C@_06PALN@nconds?$AA@   10040c50     vbc.obj
 0002:00002c58       ??_C@_0N@PKJB@usersetseeds?$AA@ 10040c58     vbc.obj
 0002:00002c68       ??_C@_0BA@HPKJ@nuserstatusvars?$AA@ 10040c68     vbc.obj
 0002:00002c78       ??_C@_0O@JDN@statusvartype?$AA@ 10040c78     vbc.obj
 0002:00002c88       ??_C@_0BE@LACE@courseagentsnumapps?$AA@ 10040c88     vbc.obj
 0002:00002c9c       ??_C@_0BC@KFLF@courseagentsindex?$AA@ 10040c9c     vbc.obj
 0002:00002cb0       ??_C@_0BB@PGFC@cmbagentsnumapps?$AA@ 10040cb0     vbc.obj
 0002:00002cc4       ??_C@_0P@FGAO@cmbagentsindex?$AA@ 10040cc4     vbc.obj
 0002:00002cd4       ??_C@_0BB@DLFC@courseagentindex?$AA@ 10040cd4     vbc.obj
 0002:00002ce8       ??_C@_0BA@KFBO@coursenumagents?$AA@ 10040ce8     vbc.obj
 0002:00002cf8       ??_C@_0P@DBMI@combonumagents?$AA@ 10040cf8     vbc.obj
 0002:00002d08       ??_C@_0BA@PCLE@regnumtreatapps?$AA@ 10040d08     vbc.obj
 0002:00002d18       ??_C@_0O@PGGI@regtreatindex?$AA@ 10040d18     vbc.obj
 0002:00002d28       ??_C@_0BB@OJOD@treatcourseindex?$AA@ 10040d28     vbc.obj
 0002:00002d3c       ??_C@_0P@KBGK@treattreattype?$AA@ 10040d3c     vbc.obj
 0002:00002d4c       ??_C@_0BA@PBCJ@treattreatindex?$AA@ 10040d4c     vbc.obj
 0002:00002d5c       ??_C@_0BC@HNAB@ICnclassandlevels?$AA@ 10040d5c     vbc.obj
 0002:00002d70       ??_C@_0P@GEIO@ICinitnicrules?$AA@ 10040d70     vbc.obj
 0002:00002d80       ??_C@_0O@KDPB@ICincnicrules?$AA@ 10040d80     vbc.obj
 0002:00002d90       ??_C@_0N@LEIC@ICagentindex?$AA@ 10040d90     vbc.obj
 0002:00002da0       ??_C@_0BB@KCDH@ICdestlevelindex?$AA@ 10040da0     vbc.obj
 0002:00002db4       ??_C@_0BD@MKFM@ICsourcelevelindex?$AA@ 10040db4     vbc.obj
 0002:00002dc8       ??_C@_0BD@KAGM@ICsourceclassindex?$AA@ 10040dc8     vbc.obj
 0002:00002ddc       ??_C@_0P@OGBF@ICiflevelindex?$AA@ 10040ddc     vbc.obj
 0002:00002dec       ??_C@_0P@IMCF@ICifclassindex?$AA@ 10040dec     vbc.obj
 0002:00002dfc       ??_C@_08IJF@trialsim?$AA@  10040dfc     vbc.obj
 0002:00002e08       ??_C@_0BE@IMNF@ctttoxreductiontype?$AA@ 10040e08     vbc.obj
 0002:00002e1c       ??_C@_0BF@JION@ctttoxreductiongrade?$AA@ 10040e1c     vbc.obj
 0002:00002e34       ??_C@_0P@MLKP@cttttreatindex?$AA@ 10040e34     vbc.obj
 0002:00002e44       ??_C@_08FFMI@cttttype?$AA@ 10040e44     vbc.obj
 0002:00002e50       ??_C@_0BA@HGBF@ctnumtreatments?$AA@ 10040e50     vbc.obj
 0002:00002e60       ??_C@_03HFMO@ctr?$AA@      10040e60     vbc.obj
 0002:00002e64       ??_C@_03CCFK@ctn?$AA@      10040e64     vbc.obj
 0002:00002e68       ??_C@_04FGHC@ctr1?$AA@     10040e68     vbc.obj
 0002:00002e70       ??_C@_04NDCF@ctn1?$AA@     10040e70     vbc.obj
 0002:00002e78       ??_C@_0BA@ICHF@ctoffstudygrade?$AA@ 10040e78     vbc.obj
 0002:00002e88       ??_C@_0BH@DFIE@ctprogressiononnewmets?$AA@ 10040e88     vbc.obj
 0002:00002ea0       ??_C@_0N@ECMP@ctmaxcourses?$AA@ 10040ea0     vbc.obj
 0002:00002eb0       ??_C@_0BG@GEEO@ctnumtoxmodifications?$AA@ 10040eb0     vbc.obj
 0002:00002ec8       ??_C@_0P@IFOO@ctcourselength?$AA@ 10040ec8     vbc.obj
 0002:00002ed8       ??_C@_08BHCJ@printgap?$AA@ 10040ed8     vbc.obj
 0002:00002ee4       ??_C@_0BD@EMEI@init_active_ntypes?$AA@ 10040ee4     vbc.obj
 0002:00002ef8       ??_C@_0N@DMEM@numtoxttypes?$AA@ 10040ef8     vbc.obj
 0002:00002f08       ??_C@_0N@PEHH@toxtypeindex?$AA@ 10040f08     vbc.obj
 0002:00002f18       ??_C@_0L@ELEC@toxrestype?$AA@ 10040f18     vbc.obj
 0002:00002f24       ??_C@_0L@KIOL@toxapptype?$AA@ 10040f24     vbc.obj
 0002:00002f30       ??_C@_02HNOA@is?$AA@       10040f30     vbc.obj
 0002:00002f34       ??_C@_0EF@KBML@?$CFs?7function?3vbc?4pokei?7variablena@ 10040f34     vbc.obj
 0002:00002f7c       ??_C@_05CKBG@Error?$AA@    10040f7c     vbc.obj
 0002:00002f84       ??_C@_0N@HPFN@eventdetail3?$AA@ 10040f84     vbc.obj
 0002:00002f94       ??_C@_0N@NFMK@eventdetail2?$AA@ 10040f94     vbc.obj
 0002:00002fa4       ??_C@_0N@CKHD@eventdetail1?$AA@ 10040fa4     vbc.obj
 0002:00002fb4       ??_C@_08HBEM@cellname?$AA@ 10040fb4     vbc.obj
 0002:00002fc0       ??_C@_08CMEB@typename?$AA@ 10040fc0     vbc.obj
 0002:00002fcc       ??_C@_0N@LGHM@plotlinename?$AA@ 10040fcc     vbc.obj
 0002:00002fdc       ??_C@_0L@CEAH@level_name?$AA@ 10040fdc     vbc.obj
 0002:00002fe8       ??_C@_0L@EODH@class_name?$AA@ 10040fe8     vbc.obj
 0002:00002ff4       ??_C@_0DG@MBHA@?$CFs?7function?3vbc?4peekc?7variablena@ 10040ff4     vbc.obj
 0002:0000302c       ??_C@_0O@BOAK@statusvarname?$AA@ 1004102c     vbc.obj
 0002:0000303c       ??_C@_0BA@MNAC@courseagentname?$AA@ 1004103c     vbc.obj
 0002:0000304c       ??_C@_0N@OANL@cmbagentname?$AA@ 1004104c     vbc.obj
 0002:0000305c       ??_C@_0L@LCPB@regtextdef?$AA@ 1004105c     vbc.obj
 0002:00003068       ??_C@_07FOBO@regname?$AA@  10041068     vbc.obj
 0002:00003070       ??_C@_06GNEF@NODRUG?$AA@   10041070     vbc.obj
 0002:00003078       ??_C@_0O@PDMP@ICdrugenvname?$AA@ 10041078     vbc.obj
 0002:00003088       ??_C@_0O@BAHB@ctttoxtoxtype?$AA@ 10041088     vbc.obj
 0002:00003098       ??_C@_08ECPP@ctttname?$AA@ 10041098     vbc.obj
 0002:000030a4       ??_C@_0BB@HGPH@ctagentshortname?$AA@ 100410a4     vbc.obj
 0002:000030b8       ??_C@_0M@GGOB@ctagentname?$AA@ 100410b8     vbc.obj
 0002:000030c4       ??_C@_0M@OIMB@toxtypename?$AA@ 100410c4     vbc.obj
 0002:000030d0       ??_C@_09GAIP@agentname?$AA@ 100410d0     vbc.obj
 0002:000030dc       ??_C@_08CKNB@drugname?$AA@ 100410dc     vbc.obj
 0002:000030e8       ??_C@_0EE@ILNO@?$CFs?7function?3vbc?4pokec?7variablena@ 100410e8     vbc.obj
 0002:0000312c       ??_C@_0N@IFOE@typename?$DN?$CFs?6?$AA@ 1004112c     vbc.obj
 0002:0000313c       ??_C@_0N@EPJ@drugname?$DN?$CFs?6?$AA@ 1004113c     vbc.obj
 0002:0000314c       ??_C@_06DPMO@Client?$AA@   1004114c     LIBCMTD:dbgheap.obj
 0002:00003154       ??_C@_06BAFM@Ignore?$AA@   10041154     LIBCMTD:dbgheap.obj
 0002:0000315c       ??_C@_03DICE@CRT?$AA@      1004115c     LIBCMTD:dbgheap.obj
 0002:00003160       ??_C@_06BILL@Normal?$AA@   10041160     LIBCMTD:dbgheap.obj
 0002:00003168       ??_C@_04NEN@Free?$AA@      10041168     LIBCMTD:dbgheap.obj
 0002:00003170       ??_C@_0DC@CGID@Error?3?5memory?5allocation?3?5bad?5me@ 10041170     LIBCMTD:dbgheap.obj
 0002:000031a4       ??_C@_0CE@FMIA@Invalid?5allocation?5size?3?5?$CFu?5byte@ 100411a4     LIBCMTD:dbgheap.obj
 0002:000031c8       ??_C@_0CB@CPBI@Client?5hook?5allocation?5failure?4?6@ 100411c8     LIBCMTD:dbgheap.obj
 0002:000031ec       ??_C@_0DF@DKHF@Client?5hook?5allocation?5failure?5a@ 100411ec     LIBCMTD:dbgheap.obj
 0002:00003224       ??_C@_09IMJC@dbgheap?4c?$AA@ 10041224     LIBCMTD:dbgheap.obj
 0002:00003230       ??_C@_0BC@EPKL@_CrtCheckMemory?$CI?$CJ?$AA@ 10041230     LIBCMTD:dbgheap.obj
 0002:00003244       ??_C@_0BK@JDHA@_pFirstBlock?5?$DN?$DN?5pOldBlock?$AA@ 10041244     LIBCMTD:dbgheap.obj
 0002:00003260       ??_C@_0BJ@NMEF@_pLastBlock?5?$DN?$DN?5pOldBlock?$AA@ 10041260     LIBCMTD:dbgheap.obj
 0002:0000327c       ??_C@_0DC@BOCN@fRealloc?5?$HM?$HM?5?$CI?$CBfRealloc?5?$CG?$CG?5pNewBl@ 1004127c     LIBCMTD:dbgheap.obj
 0002:000032b0       ??_C@_0DK@DKOM@_BLOCK_TYPE?$CIpOldBlock?9?$DOnBlockUse@ 100412b0     LIBCMTD:dbgheap.obj
 0002:000032ec       ??_C@_0EF@EDKM@pOldBlock?9?$DOnLine?5?$DN?$DN?5IGNORE_LINE?5@ 100412ec     LIBCMTD:dbgheap.obj
 0002:00003334       ??_C@_0CC@GPMO@_CrtIsValidHeapPointer?$CIpUserData@ 10041334     LIBCMTD:dbgheap.obj
 0002:00003358       ??_C@_0CN@FHGE@Allocation?5too?5large?5or?5negative@ 10041358     LIBCMTD:dbgheap.obj
 0002:00003388       ??_C@_0CE@EAMN@Client?5hook?5re?9allocation?5failur@ 10041388     LIBCMTD:dbgheap.obj
 0002:000033ac       ??_C@_0DI@KKMM@Client?5hook?5re?9allocation?5failur@ 100413ac     LIBCMTD:dbgheap.obj
 0002:000033e4       ??_C@_0BG@JCEC@_pFirstBlock?5?$DN?$DN?5pHead?$AA@ 100413e4     LIBCMTD:dbgheap.obj
 0002:000033fc       ??_C@_0BF@NLNN@_pLastBlock?5?$DN?$DN?5pHead?$AA@ 100413fc     LIBCMTD:dbgheap.obj
 0002:00003414       ??_C@_0BO@PLHH@pHead?9?$DOnBlockUse?5?$DN?$DN?5nBlockUse?$AA@ 10041414     LIBCMTD:dbgheap.obj
 0002:00003434       ??_C@_0DN@KKIO@pHead?9?$DOnLine?5?$DN?$DN?5IGNORE_LINE?5?$CG?$CG?5p@ 10041434     LIBCMTD:dbgheap.obj
 0002:00003474       ??_C@_0CK@OJNB@DAMAGE?3?5after?5?$CFhs?5block?5?$CI?$CD?$CFd?$CJ?5at@ 10041474     LIBCMTD:dbgheap.obj
 0002:000034a0       ??_C@_0CL@IJIL@DAMAGE?3?5before?5?$CFhs?5block?5?$CI?$CD?$CFd?$CJ?5a@ 100414a0     LIBCMTD:dbgheap.obj
 0002:000034cc       ??_C@_0CH@PHOC@_BLOCK_TYPE_IS_VALID?$CIpHead?9?$DOnBlo@ 100414cc     LIBCMTD:dbgheap.obj
 0002:000034f4       ??_C@_0BL@MBNA@Client?5hook?5free?5failure?4?6?$AA@ 100414f4     LIBCMTD:dbgheap.obj
 0002:00003510       ??_C@_0DK@EKKL@memory?5check?5error?5at?50x?$CF08X?5?$DN?50@ 10041510     LIBCMTD:dbgheap.obj
 0002:0000354c       ??_C@_0CJ@GCII@?$CFhs?5located?5at?50x?$CF08X?5is?5?$CFu?5byte@ 1004154c     LIBCMTD:dbgheap.obj
 0002:00003578       ??_C@_0CA@EJPI@?$CFhs?5allocated?5at?5file?5?$CFhs?$CI?$CFd?$CJ?4?6?$AA@ 10041578     LIBCMTD:dbgheap.obj
 0002:00003598       ??_C@_0CJ@LHHG@DAMAGE?3?5on?5top?5of?5Free?5block?5at?5@ 10041598     LIBCMTD:dbgheap.obj
 0002:000035c4       ??_C@_07GJHM@DAMAGED?$AA@  100415c4     LIBCMTD:dbgheap.obj
 0002:000035cc       ??_C@_0CL@ODIE@_heapchk?5fails?5with?5unknown?5retu@ 100415cc     LIBCMTD:dbgheap.obj
 0002:000035f8       ??_C@_0CC@EHNC@_heapchk?5fails?5with?5_HEAPBADPTR?4@ 100415f8     LIBCMTD:dbgheap.obj
 0002:0000361c       ??_C@_0CC@JNDP@_heapchk?5fails?5with?5_HEAPBADEND?4@ 1004161c     LIBCMTD:dbgheap.obj
 0002:00003640       ??_C@_0CD@DNMG@_heapchk?5fails?5with?5_HEAPBADNODE@ 10041640     LIBCMTD:dbgheap.obj
 0002:00003664       ??_C@_0CE@JMCB@_heapchk?5fails?5with?5_HEAPBADBEGI@ 10041664     LIBCMTD:dbgheap.obj
 0002:00003688       ??_C@_0CD@MEMI@Bad?5memory?5block?5found?5at?50x?$CF08X@ 10041688     LIBCMTD:dbgheap.obj
 0002:000036ac       ??_C@_0CI@GMAO@_CrtMemCheckPoint?3?5NULL?5state?5po@ 100416ac     LIBCMTD:dbgheap.obj
 0002:000036d4       ??_C@_0CI@MNAE@_CrtMemDifference?3?5NULL?5state?5po@ 100416d4     LIBCMTD:dbgheap.obj
 0002:000036fc       ??_C@_0BH@PKIJ@Object?5dump?5complete?4?6?$AA@ 100416fc     LIBCMTD:dbgheap.obj
 0002:00003714       ??_C@_0DB@DBPF@crt?5block?5at?50x?$CF08X?0?5subtype?5?$CFx?0@ 10041714     LIBCMTD:dbgheap.obj
 0002:00003748       ??_C@_0CI@JLM@normal?5block?5at?50x?$CF08X?0?5?$CFu?5bytes@ 10041748     LIBCMTD:dbgheap.obj
 0002:00003770       ??_C@_0DE@PFEA@client?5block?5at?50x?$CF08X?0?5subtype?5@ 10041770     LIBCMTD:dbgheap.obj
 0002:000037a4       ??_C@_06MBCE@?$HL?$CFld?$HN?5?$AA@ 100417a4     LIBCMTD:dbgheap.obj
 0002:000037ac       ??_C@_0L@BLDJ@?$CFhs?$CI?$CFd?$CJ?5?3?5?$AA@ 100417ac     LIBCMTD:dbgheap.obj
 0002:000037b8       ??_C@_0BE@FEMA@?$CDFile?5Error?$CD?$CI?$CFd?$CJ?5?3?5?$AA@ 100417b8     LIBCMTD:dbgheap.obj
 0002:000037cc       ??_C@_0BE@FPPM@Dumping?5objects?5?9?$DO?6?$AA@ 100417cc     LIBCMTD:dbgheap.obj
 0002:000037e0       ??_C@_0BA@POLM@?5Data?3?5?$DM?$CFs?$DO?5?$CFs?6?$AA@ 100417e0     LIBCMTD:dbgheap.obj
 0002:000037f0       ??_C@_05JLAO@?$CF?42X?5?$AA@ 100417f0     LIBCMTD:dbgheap.obj
 0002:000037f8       ??_C@_0BI@KONA@Detected?5memory?5leaks?$CB?6?$AA@ 100417f8     LIBCMTD:dbgheap.obj
 0002:00003810       ??_C@_0BP@LCCN@Total?5allocations?3?5?$CFld?5bytes?4?6?$AA@ 10041810     LIBCMTD:dbgheap.obj
 0002:00003830       ??_C@_0CB@COID@Largest?5number?5used?3?5?$CFld?5bytes?4?6@ 10041830     LIBCMTD:dbgheap.obj
 0002:00003854       ??_C@_0BO@MEJD@?$CFld?5bytes?5in?5?$CFld?5?$CFhs?5Blocks?4?6?$AA@ 10041854     LIBCMTD:dbgheap.obj
 0002:00003874       ??_C@_0P@LNLA@format?5?$CB?$DN?5NULL?$AA@ 10041874     LIBCMTD:fprintf.obj
 0002:00003884       ??_C@_09DLOM@fprintf?4c?$AA@ 10041884     LIBCMTD:fprintf.obj
 0002:00003890       ??_C@_0M@KJPK@str?5?$CB?$DN?5NULL?$AA@ 10041890     LIBCMTD:fprintf.obj
 0002:0000389c       ??_C@_09NEAG@sprintf?4c?$AA@ 1004189c     LIBCMTD:sprintf.obj
 0002:000038a8       ??_C@_0P@OOIN@string?5?$CB?$DN?5NULL?$AA@ 100418a8     LIBCMTD:sprintf.obj
 0002:000038b8       ??_C@_08JKP@ungetc?4c?$AA@ 100418b8     LIBCMTD:ungetc.obj
 0002:000038c4       ??_C@_0P@FHEA@stream?5?$CB?$DN?5NULL?$AA@ 100418c4     LIBCMTD:ungetc.obj
 0002:000038d4       ??_C@_07JJAI@fgetc?4c?$AA@ 100418d4     LIBCMTD:fgetc.obj
 0002:000038dc       ??_C@_07HPAH@_file?4c?$AA@ 100418dc     LIBCMTD:_file.obj
 0002:000038e4       ??_C@_08KDEN@fscanf?4c?$AA@ 100418e4     LIBCMTD:fscanf.obj
 0002:000038f0       ??_C@_08GNFC@printf?4c?$AA@ 100418f0     LIBCMTD:printf.obj
 0002:000038fc       ??_C@_08ENH@strupr?4c?$AA@ 100418fc     LIBCMTD:strupr.obj
 0002:00003908       ??_C@_0BB@BLL@Assertion?5Failed?$AA@ 10041908     LIBCMTD:dbgrpt.obj
 0002:0000391c       ??_C@_07JCGI@Warning?$AA@  1004191c     LIBCMTD:dbgrpt.obj
 0002:00003924       ??_C@_0M@ODEP@?$CFs?$CI?$CFd?$CJ?5?3?5?$CFs?$AA@ 10041924     LIBCMTD:dbgrpt.obj
 0002:00003930       ??_C@_01FEHD@?$AN?$AA@     10041930     LIBCMTD:dbgrpt.obj
 0002:00003934       ??_C@_0BC@OIMC@Assertion?5failed?$CB?$AA@ 10041934     LIBCMTD:dbgrpt.obj
 0002:00003948       ??_C@_0BD@BEAK@Assertion?5failed?3?5?$AA@ 10041948     LIBCMTD:dbgrpt.obj
 0002:0000395c       ??_C@_0CL@LCCP@_CrtDbgReport?3?5String?5too?5long?5o@ 1004195c     LIBCMTD:dbgrpt.obj
 0002:00003988       ??_C@_0DC@EMDK@Second?5Chance?5Assertion?5Failed?3?5@ 10041988     LIBCMTD:dbgrpt.obj
 0002:000039bc       ??_C@_09NJAK@wsprintfA?$AA@ 100419bc     LIBCMTD:dbgrpt.obj
 0002:000039c8       ??_C@_0L@HKL@user32?4dll?$AA@ 100419c8     LIBCMTD:dbgrpt.obj
 0002:000039d4       ??_C@_0CD@GCMD@Microsoft?5Visual?5C?$CL?$CL?5Debug?5Libra@ 100419d4     LIBCMTD:dbgrpt.obj
 0002:000039f8       ??_C@_0FD@EBDD@Debug?5?$CFs?$CB?6?6Program?3?5?$CFs?$CFs?$CFs?$CFs?$CFs?$CFs@ 100419f8     LIBCMTD:dbgrpt.obj
 0002:00003a4c       ??_C@_09DCKN@?6Module?3?5?$AA@ 10041a4c     LIBCMTD:dbgrpt.obj
 0002:00003a58       ??_C@_07HJII@?6File?3?5?$AA@ 10041a58     LIBCMTD:dbgrpt.obj
 0002:00003a60       ??_C@_07LFGN@?6Line?3?5?$AA@ 10041a60     LIBCMTD:dbgrpt.obj
 0002:00003a68       ??_C@_02JJJH@?6?6?$AA@     10041a68     LIBCMTD:dbgrpt.obj
 0002:00003a6c       ??_C@_0N@NOAB@Expression?3?5?$AA@ 10041a6c     LIBCMTD:dbgrpt.obj
 0002:00003a7c       ??_C@_0HD@BHFH@?6?6For?5information?5on?5how?5your?5pr@ 10041a7c     LIBCMTD:dbgrpt.obj
 0002:00003af0       ??_C@_03NAME@?4?4?4?$AA@   10041af0     LIBCMTD:dbgrpt.obj
 0002:00003af4       ??_C@_0BH@NNCD@?$DMprogram?5name?5unknown?$DO?$AA@ 10041af4     LIBCMTD:dbgrpt.obj
 0002:00003b0c       ??_C@_08GFHP@dbgrpt?4c?$AA@ 10041b0c     LIBCMTD:dbgrpt.obj
 0002:00003b18       ??_C@_0BG@FBEA@szUserMessage?5?$CB?$DN?5NULL?$AA@ 10041b18     LIBCMTD:dbgrpt.obj
 0002:00003b30       ??_C@_08PHBD@fclose?4c?$AA@ 10041b30     LIBCMTD:fclose.obj
 0002:00003b3c       ??_C@_0BC@IPFL@?$CKmode?5?$CB?$DN?5_T?$CI?8?20?8?$CJ?$AA@ 10041b3c     LIBCMTD:fopen.obj
 0002:00003b50       ??_C@_0N@BKPP@mode?5?$CB?$DN?5NULL?$AA@ 10041b50     LIBCMTD:fopen.obj
 0002:00003b60       ??_C@_0BC@GOED@?$CKfile?5?$CB?$DN?5_T?$CI?8?20?8?$CJ?$AA@ 10041b60     LIBCMTD:fopen.obj
 0002:00003b74       ??_C@_07OMGG@fopen?4c?$AA@ 10041b74     LIBCMTD:fopen.obj
 0002:00003b7c       ??_C@_0N@MCKG@file?5?$CB?$DN?5NULL?$AA@ 10041b7c     LIBCMTD:fopen.obj
 0002:00003b8c       ??_C@_02HFBK@?3?5?$AA@     10041b8c     LIBCMTD:perror.obj
 0002:00003b90       ??_C@_07BNNN@scanf?4c?$AA@ 10041b90     LIBCMTD:scanf.obj
 0002:00003b98       ??_C@_09JDKJ@asctime?4c?$AA@ 10041b98     LIBCMTD:asctime.obj
 0002:00003ba4       ??_C@_07PDLA@mlock?4c?$AA@ 10041ba4     LIBCMTD:mlock.obj
 0002:00003bac       ??_C@_0BK@JEGK@IsProcessorFeaturePresent?$AA@ 10041bac     LIBCMTD:testfdiv.obj
 0002:00003bc8       ??_C@_08OBID@KERNEL32?$AA@ 10041bc8     LIBCMTD:testfdiv.obj
 0002:00003bd4       ??_C@_05OFLO@e?$CL000?$AA@ 10041bd4     LIBCMTD:cvt.obj
 0002:00003bdc       ??_C@_09JNND@_sftbuf?4c?$AA@ 10041bdc     LIBCMTD:_sftbuf.obj
 0002:00003be8       ??_C@_0BH@EOPG@flag?5?$DN?$DN?50?5?$HM?$HM?5flag?5?$DN?$DN?51?$AA@ 10041be8     LIBCMTD:_sftbuf.obj
 0002:00003c00       ___lookuptable             10041c00     LIBCMTD:output.obj
 0002:00003c5c       ??_C@_1O@POHA@?$AA?$CI?$AAn?$AAu?$AAl?$AAl?$AA?$CJ?$AA?$AA@ 10041c5c     LIBCMTD:output.obj
 0002:00003c6c       ??_C@_06ONKE@?$CInull?$CJ?$AA@ 10041c6c     LIBCMTD:output.obj
 0002:00003c74       ??_C@_08MIHI@output?4c?$AA@ 10041c74     LIBCMTD:output.obj
 0002:00003c80       ??_C@_0P@PIHB@ch?5?$CB?$DN?5_T?$CI?8?20?8?$CJ?$AA@ 10041c80     LIBCMTD:output.obj
 0002:00003c90       ??_C@_0DP@IHIN@?$CI?$CCinconsistent?5IOB?5fields?$CC?0?5stre@ 10041c90     LIBCMTD:_flsbuf.obj
 0002:00003cd0       ??_C@_09LGEI@_flsbuf?4c?$AA@ 10041cd0     LIBCMTD:_flsbuf.obj
 0002:00003ce8       __DEFAULT_CW_in_mem        10041ce8     LIBCMTD:common.obj
 0002:00003cea       __pi_by_2_to_61            10041cea     LIBCMTD:common.obj
 0002:00003d60       ??_C@_03GAFO@_yn?$AA@      10041d60     LIBCMTD:fpexcept.obj
 0002:00003d64       ??_C@_03GNLD@_y1?$AA@      10041d64     LIBCMTD:fpexcept.obj
 0002:00003d68       ??_C@_03MHCE@_y0?$AA@      10041d68     LIBCMTD:fpexcept.obj
 0002:00003d6c       ??_C@_05PAK@frexp?$AA@     10041d6c     LIBCMTD:fpexcept.obj
 0002:00003d74       ??_C@_04JKCH@fmod?$AA@     10041d74     LIBCMTD:fpexcept.obj
 0002:00003d7c       ??_C@_06GGHF@_hypot?$AA@   10041d7c     LIBCMTD:fpexcept.obj
 0002:00003d84       ??_C@_05JNMC@_cabs?$AA@    10041d84     LIBCMTD:fpexcept.obj
 0002:00003d8c       ??_C@_05MEKH@ldexp?$AA@    10041d8c     LIBCMTD:fpexcept.obj
 0002:00003d94       ??_C@_04KAOJ@modf?$AA@     10041d94     LIBCMTD:fpexcept.obj
 0002:00003d9c       ??_C@_04EHAJ@fabs?$AA@     10041d9c     LIBCMTD:fpexcept.obj
 0002:00003da4       ??_C@_05MFBN@floor?$AA@    10041da4     LIBCMTD:fpexcept.obj
 0002:00003dac       ??_C@_04JJMP@ceil?$AA@     10041dac     LIBCMTD:fpexcept.obj
 0002:00003db4       ??_C@_03JLPI@tan?$AA@      10041db4     LIBCMTD:fpexcept.obj
 0002:00003db8       ??_C@_03DLFL@cos?$AA@      10041db8     LIBCMTD:fpexcept.obj
 0002:00003dbc       ??_C@_03JAMN@sin?$AA@      10041dbc     LIBCMTD:fpexcept.obj
 0002:00003dc0       ??_C@_04LMBE@sqrt?$AA@     10041dc0     LIBCMTD:fpexcept.obj
 0002:00003dc8       ??_C@_05BFPO@atan2?$AA@    10041dc8     LIBCMTD:fpexcept.obj
 0002:00003dd0       ??_C@_04EAGN@atan?$AA@     10041dd0     LIBCMTD:fpexcept.obj
 0002:00003dd8       ??_C@_04OAMO@acos?$AA@     10041dd8     LIBCMTD:fpexcept.obj
 0002:00003de0       ??_C@_04ELFI@asin?$AA@     10041de0     LIBCMTD:fpexcept.obj
 0002:00003de8       ??_C@_04LFAD@tanh?$AA@     10041de8     LIBCMTD:fpexcept.obj
 0002:00003df0       ??_C@_04PFKD@cosh?$AA@     10041df0     LIBCMTD:fpexcept.obj
 0002:00003df8       ??_C@_04NPAI@sinh?$AA@     10041df8     LIBCMTD:fpexcept.obj
 0002:00003e00       ??_C@_05IJHH@log10?$AA@    10041e00     LIBCMTD:fpexcept.obj
 0002:00003e08       ??_C@_03BGKD@log?$AA@      10041e08     LIBCMTD:fpexcept.obj
 0002:00003e0c       ??_C@_03EGFG@pow?$AA@      10041e0c     LIBCMTD:fpexcept.obj
 0002:00003e10       ??_C@_03CDGJ@exp?$AA@      10041e10     LIBCMTD:fpexcept.obj
 0002:00003e14       ??_C@_07PCLE@LC_TIME?$AA@  10041e14     LIBCMTD:setlocal.obj
 0002:00003e1c       ??_C@_0L@NKG@LC_NUMERIC?$AA@ 10041e1c     LIBCMTD:setlocal.obj
 0002:00003e28       ??_C@_0M@CBIH@LC_MONETARY?$AA@ 10041e28     LIBCMTD:setlocal.obj
 0002:00003e34       ??_C@_08LFGE@LC_CTYPE?$AA@ 10041e34     LIBCMTD:setlocal.obj
 0002:00003e40       ??_C@_0L@CFLC@LC_COLLATE?$AA@ 10041e40     LIBCMTD:setlocal.obj
 0002:00003e4c       ??_C@_06GCPK@LC_ALL?$AA@   10041e4c     LIBCMTD:setlocal.obj
 0002:00003e54       ??_C@_01FAJB@?$DL?$AA@     10041e54     LIBCMTD:setlocal.obj
 0002:00003e58       ??_C@_02BGDO@?$DN?$DL?$AA@ 10041e58     LIBCMTD:setlocal.obj
 0002:00003e5c       ??_C@_0L@MOEE@setlocal?4c?$AA@ 10041e5c     LIBCMTD:setlocal.obj
 0002:00003e68       ??_C@_03DBOJ@_?4?0?$AA@    10041e68     LIBCMTD:setlocal.obj
 0002:00003e6c       ??_C@_01NON@_?$AA@         10041e6c     LIBCMTD:setlocal.obj
 0002:00003e70       ??_C@_01A@?$AA?$AA@        10041e70     LIBCMTD:a_map.obj
 0002:00003e74       ??_C@_13A@?$AA?$AA?$AA?$AA@ 10041e74     LIBCMTD:a_map.obj
 0002:00003e90       ??_C@_09EMDO@_getbuf?4c?$AA@ 10041e90     LIBCMTD:_getbuf.obj
 0002:00003e9c       ??_C@_09DNOI@_filbuf?4c?$AA@ 10041e9c     LIBCMTD:_filbuf.obj
 0002:00003ea8       ??_C@_08KFDJ@ioinit?4c?$AA@ 10041ea8     LIBCMTD:ioinit.obj
 0002:00003eb4       ??_C@_0L@ENLJ@tidtable?4c?$AA@ 10041eb4     LIBCMTD:tidtable.obj
 0002:00003ec0       ??_C@_08CNMA@winsig?4c?$AA@ 10041ec0     LIBCMTD:winsig.obj
 0002:00003ecc       ??_C@_07IEFA@input?4c?$AA@ 10041ecc     LIBCMTD:input.obj
 0002:00003ed4       ??_C@_0L@HE@vsprintf?4c?$AA@ 10041ed4     LIBCMTD:vsnprint.obj
 0002:00003ee0       ??_C@_0BD@NJFP@GetLastActivePopup?$AA@ 10041ee0     LIBCMTD:crtmbox.obj
 0002:00003ef4       ??_C@_0BA@GILI@GetActiveWindow?$AA@ 10041ef4     LIBCMTD:crtmbox.obj
 0002:00003f04       ??_C@_0M@PKCK@MessageBoxA?$AA@ 10041f04     LIBCMTD:crtmbox.obj
 0002:00003f10       ??_C@_0L@JIE@_freebuf?4c?$AA@ 10041f10     LIBCMTD:_freebuf.obj
 0002:00003f1c       ??_C@_07INLA@_open?4c?$AA@ 10041f1c     LIBCMTD:_open.obj
 0002:00003f24       ??_C@_0BB@COCE@filename?5?$CB?$DN?5NULL?$AA@ 10041f24     LIBCMTD:_open.obj
 0002:00003f38       ??_C@_08HJEP@stream?4c?$AA@ 10041f38     LIBCMTD:stream.obj
 0002:00003f44       ??_C@_09LNLM@osfinfo?4c?$AA@ 10041f44     LIBCMTD:osfinfo.obj
 0002:00003f50       ??_C@_0BG@JPLP@Illegal?5byte?5sequence?$AA@ 10041f50     LIBCMTD:syserr.obj
 0002:00003f68       ??_C@_0BE@FLBN@Directory?5not?5empty?$AA@ 10041f68     LIBCMTD:syserr.obj
 0002:00003f7c       ??_C@_0BJ@KAFL@Function?5not?5implemented?$AA@ 10041f7c     LIBCMTD:syserr.obj
 0002:00003f98       ??_C@_0BD@CEML@No?5locks?5available?$AA@ 10041f98     LIBCMTD:syserr.obj
 0002:00003fac       ??_C@_0BC@GADJ@Filename?5too?5long?$AA@ 10041fac     LIBCMTD:syserr.obj
 0002:00003fc0       ??_C@_0BK@FNFN@Resource?5deadlock?5avoided?$AA@ 10041fc0     LIBCMTD:syserr.obj
 0002:00003fdc       ??_C@_0BB@EALI@Result?5too?5large?$AA@ 10041fdc     LIBCMTD:syserr.obj
 0002:00003ff0       ??_C@_0N@FIAN@Domain?5error?$AA@ 10041ff0     LIBCMTD:syserr.obj
 0002:00004000       ??_C@_0M@CLKF@Broken?5pipe?$AA@ 10042000     LIBCMTD:syserr.obj
 0002:0000400c       ??_C@_0P@OFDM@Too?5many?5links?$AA@ 1004200c     LIBCMTD:syserr.obj
 0002:0000401c       ??_C@_0BG@OHDM@Read?9only?5file?5system?$AA@ 1004201c     LIBCMTD:syserr.obj
 0002:00004034       ??_C@_0N@NGPA@Invalid?5seek?$AA@ 10042034     LIBCMTD:syserr.obj
 0002:00004044       ??_C@_0BI@DMFE@No?5space?5left?5on?5device?$AA@ 10042044     LIBCMTD:syserr.obj
 0002:0000405c       ??_C@_0P@OPNK@File?5too?5large?$AA@ 1004205c     LIBCMTD:syserr.obj
 0002:0000406c       ??_C@_0CE@BADJ@Inappropriate?5I?1O?5control?5operat@ 1004206c     LIBCMTD:syserr.obj
 0002:00004090       ??_C@_0BE@COOK@Too?5many?5open?5files?$AA@ 10042090     LIBCMTD:syserr.obj
 0002:000040a4       ??_C@_0BO@ELHF@Too?5many?5open?5files?5in?5system?$AA@ 100420a4     LIBCMTD:syserr.obj
 0002:000040c4       ??_C@_0BB@IHAB@Invalid?5argument?$AA@ 100420c4     LIBCMTD:syserr.obj
 0002:000040d8       ??_C@_0P@NDNC@Is?5a?5directory?$AA@ 100420d8     LIBCMTD:syserr.obj
 0002:000040e8       ??_C@_0BA@JMMO@Not?5a?5directory?$AA@ 100420e8     LIBCMTD:syserr.obj
 0002:000040f8       ??_C@_0P@GFAI@No?5such?5device?$AA@ 100420f8     LIBCMTD:syserr.obj
 0002:00004108       ??_C@_0O@KHHM@Improper?5link?$AA@ 10042108     LIBCMTD:syserr.obj
 0002:00004118       ??_C@_0M@EPHJ@File?5exists?$AA@ 10042118     LIBCMTD:syserr.obj
 0002:00004124       ??_C@_0BA@LPOH@Resource?5device?$AA@ 10042124     LIBCMTD:syserr.obj
 0002:00004134       ??_C@_0O@NOFB@Unknown?5error?$AA@ 10042134     LIBCMTD:syserr.obj
 0002:00004144       ??_C@_0M@MLJM@Bad?5address?$AA@ 10042144     LIBCMTD:syserr.obj
 0002:00004150       ??_C@_0BC@DJON@Permission?5denied?$AA@ 10042150     LIBCMTD:syserr.obj
 0002:00004164       ??_C@_0BB@KDDC@Not?5enough?5space?$AA@ 10042164     LIBCMTD:syserr.obj
 0002:00004178       ??_C@_0CB@BBBH@Resource?5temporarily?5unavailable@ 10042178     LIBCMTD:syserr.obj
 0002:0000419c       ??_C@_0BD@ODIH@No?5child?5processes?$AA@ 1004219c     LIBCMTD:syserr.obj
 0002:000041b0       ??_C@_0BE@CDDH@Bad?5file?5descriptor?$AA@ 100421b0     LIBCMTD:syserr.obj
 0002:000041c4       ??_C@_0BC@BICL@Exec?5format?5error?$AA@ 100421c4     LIBCMTD:syserr.obj
 0002:000041d8       ??_C@_0BC@IGMC@Arg?5list?5too?5long?$AA@ 100421d8     LIBCMTD:syserr.obj
 0002:000041ec       ??_C@_0BK@HLB@No?5such?5device?5or?5address?$AA@ 100421ec     LIBCMTD:syserr.obj
 0002:00004208       ??_C@_0BD@MPKK@Input?1output?5error?$AA@ 10042208     LIBCMTD:syserr.obj
 0002:0000421c       ??_C@_0BK@ODCM@Interrupted?5function?5call?$AA@ 1004221c     LIBCMTD:syserr.obj
 0002:00004238       ??_C@_0BA@BPKN@No?5such?5process?$AA@ 10042238     LIBCMTD:syserr.obj
 0002:00004248       ??_C@_0BK@IEMO@No?5such?5file?5or?5directory?$AA@ 10042248     LIBCMTD:syserr.obj
 0002:00004264       ??_C@_0BI@IIAE@Operation?5not?5permitted?$AA@ 10042264     LIBCMTD:syserr.obj
 0002:0000427c       ??_C@_08KKBH@No?5error?$AA@ 1004227c     LIBCMTD:syserr.obj
 0002:00004288       ___dnames                  10042288     LIBCMTD:timeset.obj
 0002:000042a0       ___mnames                  100422a0     LIBCMTD:timeset.obj
 0002:000042c8       ??_C@_07DEKI@tzset?4c?$AA@ 100422c8     LIBCMTD:tzset.obj
 0002:000042d0       ??_C@_02JHIA@TZ?$AA@       100422d0     LIBCMTD:tzset.obj
 0002:000042d4       ??_C@_08LLGM@gmtime?4c?$AA@ 100422d4     LIBCMTD:gmtime.obj
 0002:000042e0       ??_C@_09IGKD@stdenvp?4c?$AA@ 100422e0     LIBCMTD:stdenvp.obj
 0002:000042ec       ??_C@_09MPMN@stdargv?4c?$AA@ 100422ec     LIBCMTD:stdargv.obj
 0002:000042f8       ??_C@_07BNNE@a_env?4c?$AA@ 100422f8     LIBCMTD:a_env.obj
 0002:00004300       ??_C@_0P@GGKG@runtime?5error?5?$AA@ 10042300     LIBCMTD:crt0msg.obj
 0002:00004310       ??_C@_02PIMC@?$AN?6?$AA@   10042310     LIBCMTD:crt0msg.obj
 0002:00004314       ??_C@_0O@DELO@TLOSS?5error?$AN?6?$AA@ 10042314     LIBCMTD:crt0msg.obj
 0002:00004324       ??_C@_0N@OMLL@SING?5error?$AN?6?$AA@ 10042324     LIBCMTD:crt0msg.obj
 0002:00004334       ??_C@_0P@OJAK@DOMAIN?5error?$AN?6?$AA@ 10042334     LIBCMTD:crt0msg.obj
 0002:00004344       ??_C@_0CF@EANP@R6028?$AN?6?9?5unable?5to?5initialize?5he@ 10042344     LIBCMTD:crt0msg.obj
 0002:0000436c       ??_C@_0DF@ECGN@R6027?$AN?6?9?5not?5enough?5space?5for?5lo@ 1004236c     LIBCMTD:crt0msg.obj
 0002:000043a4       ??_C@_0DF@FKAC@R6026?$AN?6?9?5not?5enough?5space?5for?5st@ 100423a4     LIBCMTD:crt0msg.obj
 0002:000043dc       ??_C@_0CG@DPMN@R6025?$AN?6?9?5pure?5virtual?5function?5c@ 100423dc     LIBCMTD:crt0msg.obj
 0002:00004404       ??_C@_0DF@CKIP@R6024?$AN?6?9?5not?5enough?5space?5for?5_o@ 10042404     LIBCMTD:crt0msg.obj
 0002:0000443c       ??_C@_0CJ@GGOE@R6019?$AN?6?9?5unable?5to?5open?5console?5@ 1004243c     LIBCMTD:crt0msg.obj
 0002:00004468       ??_C@_0CB@LBOB@R6018?$AN?6?9?5unexpected?5heap?5error?$AN?6@ 10042468     LIBCMTD:crt0msg.obj
 0002:0000448c       ??_C@_0CN@FPEG@R6017?$AN?6?9?5unexpected?5multithread?5@ 1004248c     LIBCMTD:crt0msg.obj
 0002:000044bc       ??_C@_0CM@OBIC@R6016?$AN?6?9?5not?5enough?5space?5for?5th@ 100424bc     LIBCMTD:crt0msg.obj
 0002:000044e8       ??_C@_0CB@HPAL@?$AN?6abnormal?5program?5termination?$AN?6@ 100424e8     LIBCMTD:crt0msg.obj
 0002:0000450c       ??_C@_0CM@JOOB@R6009?$AN?6?9?5not?5enough?5space?5for?5en@ 1004250c     LIBCMTD:crt0msg.obj
 0002:00004538       ??_C@_0CK@OIBL@R6008?$AN?6?9?5not?5enough?5space?5for?5ar@ 10042538     LIBCMTD:crt0msg.obj
 0002:00004564       ??_C@_0CF@LKPB@R6002?$AN?6?9?5floating?5point?5not?5load@ 10042564     LIBCMTD:crt0msg.obj
 0002:0000458c       ??_C@_0CF@JPDF@Microsoft?5Visual?5C?$CL?$CL?5Runtime?5Lib@ 1004258c     LIBCMTD:crt0msg.obj
 0002:000045b4       ??_C@_0BK@DEOK@Runtime?5Error?$CB?6?6Program?3?5?$AA@ 100425b4     LIBCMTD:crt0msg.obj
 0002:000045dc       ??_C@_0L@EEGJ@inittime?4c?$AA@ 100425dc     LIBCMTD:inittime.obj
 0002:000045e8       ??_C@_09IMJJ@initnum?4c?$AA@ 100425e8     LIBCMTD:initnum.obj
 0002:000045f4       ??_C@_09KPNI@initmon?4c?$AA@ 100425f4     LIBCMTD:initmon.obj
 0002:00004600       ??_C@_0L@COIL@initctyp?4c?$AA@ 10042600     LIBCMTD:initctyp.obj
 0002:0000460c       ??_C@_08OBJD@Paraguay?$AA@ 1004260c     LIBCMTD:getqloc.obj
 0002:00004618       ??_C@_07GLKH@Uruguay?$AA@  10042618     LIBCMTD:getqloc.obj
 0002:00004620       ??_C@_05FPFC@Chile?$AA@    10042620     LIBCMTD:getqloc.obj
 0002:00004628       ??_C@_07IIGF@Ecuador?$AA@  10042628     LIBCMTD:getqloc.obj
 0002:00004630       ??_C@_09PKAL@Argentina?$AA@ 10042630     LIBCMTD:getqloc.obj
 0002:0000463c       ??_C@_04LKAH@Peru?$AA@     1004263c     LIBCMTD:getqloc.obj
 0002:00004644       ??_C@_08NEEM@Colombia?$AA@ 10042644     LIBCMTD:getqloc.obj
 0002:00004650       ??_C@_09ODEB@Venezuela?$AA@ 10042650     LIBCMTD:getqloc.obj
 0002:0000465c       ??_C@_0BD@CLEL@Dominican?5Republic?$AA@ 1004265c     LIBCMTD:getqloc.obj
 0002:00004670       ??_C@_0N@MDGL@South?5Africa?$AA@ 10042670     LIBCMTD:getqloc.obj
 0002:00004680       ??_C@_06NKBG@Panama?$AA@   10042680     LIBCMTD:getqloc.obj
 0002:00004688       ??_C@_0L@BMHO@Luxembourg?$AA@ 10042688     LIBCMTD:getqloc.obj
 0002:00004694       ??_C@_0L@IMDK@Costa?5Rica?$AA@ 10042694     LIBCMTD:getqloc.obj
 0002:000046a0       ??_C@_0M@BLJF@Switzerland?$AA@ 100426a0     LIBCMTD:getqloc.obj
 0002:000046ac       ??_C@_09KBOL@Guatemala?$AA@ 100426ac     LIBCMTD:getqloc.obj
 0002:000046b8       ??_C@_06JNAK@Canada?$AA@   100426b8     LIBCMTD:getqloc.obj
 0002:000046c0       ??_C@_0BG@OLLP@Spanish?5?9?5Modern?5Sort?$AA@ 100426c0     LIBCMTD:getqloc.obj
 0002:000046d8       ??_C@_09IDKE@Australia?$AA@ 100426d8     LIBCMTD:getqloc.obj
 0002:000046e4       ??_C@_07JJJJ@English?$AA@  100426e4     LIBCMTD:getqloc.obj
 0002:000046ec       ??_C@_07NMDO@Austria?$AA@  100426ec     LIBCMTD:getqloc.obj
 0002:000046f4       ??_C@_06DEFE@German?$AA@   100426f4     LIBCMTD:getqloc.obj
 0002:000046fc       ??_C@_07JAIH@Belgium?$AA@  100426fc     LIBCMTD:getqloc.obj
 0002:00004704       ??_C@_06BNLJ@Mexico?$AA@   10042704     LIBCMTD:getqloc.obj
 0002:0000470c       ??_C@_07JHAG@Spanish?$AA@  1004270c     LIBCMTD:getqloc.obj
 0002:00004714       ??_C@_06DADE@Basque?$AA@   10042714     LIBCMTD:getqloc.obj
 0002:0000471c       ??_C@_06ENFP@Sweden?$AA@   1004271c     LIBCMTD:getqloc.obj
 0002:00004724       ??_C@_07JPMH@Swedish?$AA@  10042724     LIBCMTD:getqloc.obj
 0002:0000472c       ??_C@_07IEKF@Iceland?$AA@  1004272c     LIBCMTD:getqloc.obj
 0002:00004734       ??_C@_09KNEA@Icelandic?$AA@ 10042734     LIBCMTD:getqloc.obj
 0002:00004740       ??_C@_06IJOD@France?$AA@   10042740     LIBCMTD:getqloc.obj
 0002:00004748       ??_C@_06EINI@French?$AA@   10042748     LIBCMTD:getqloc.obj
 0002:00004750       ??_C@_07FOOE@Finland?$AA@  10042750     LIBCMTD:getqloc.obj
 0002:00004758       ??_C@_07OJOM@Finnish?$AA@  10042758     LIBCMTD:getqloc.obj
 0002:00004760       ??_C@_05FFAC@Spain?$AA@    10042760     LIBCMTD:getqloc.obj
 0002:00004768       ??_C@_0BL@BIHM@Spanish?5?9?5Traditional?5Sort?$AA@ 10042768     LIBCMTD:getqloc.obj
 0002:00004784       ??_C@_0O@GLHB@united?9states?$AA@ 10042784     LIBCMTD:getqloc.obj
 0002:00004794       ??_C@_0P@IIKK@united?9kingdom?$AA@ 10042794     LIBCMTD:getqloc.obj
 0002:000047a4       ??_C@_0BC@FHBO@trinidad?5?$CG?5tobago?$AA@ 100427a4     LIBCMTD:getqloc.obj
 0002:000047b8       ??_C@_0M@BDFM@south?9korea?$AA@ 100427b8     LIBCMTD:getqloc.obj
 0002:000047c4       ??_C@_0N@CKFA@south?9africa?$AA@ 100427c4     LIBCMTD:getqloc.obj
 0002:000047d4       ??_C@_0M@HNHN@south?5korea?$AA@ 100427d4     LIBCMTD:getqloc.obj
 0002:000047e0       ??_C@_0N@MKDO@south?5africa?$AA@ 100427e0     LIBCMTD:getqloc.obj
 0002:000047f0       ??_C@_06KFFJ@slovak?$AA@   100427f0     LIBCMTD:getqloc.obj
 0002:000047f8       ??_C@_0M@NMAC@puerto?9rico?$AA@ 100427f8     LIBCMTD:getqloc.obj
 0002:00004804       ??_C@_08EJOH@pr?9china?$AA@ 10042804     LIBCMTD:getqloc.obj
 0002:00004810       ??_C@_08CHMG@pr?5china?$AA@ 10042810     LIBCMTD:getqloc.obj
 0002:0000481c       ??_C@_02OCJK@nz?$AA@       1004281c     LIBCMTD:getqloc.obj
 0002:00004820       ??_C@_0M@MMKA@new?9zealand?$AA@ 10042820     LIBCMTD:getqloc.obj
 0002:0000482c       ??_C@_09MGEH@hong?9kong?$AA@ 1004282c     LIBCMTD:getqloc.obj
 0002:00004838       ??_C@_07CCAK@holland?$AA@  10042838     LIBCMTD:getqloc.obj
 0002:00004840       ??_C@_0O@MEPL@great?5britain?$AA@ 10042840     LIBCMTD:getqloc.obj
 0002:00004850       ??_C@_07LGIB@england?$AA@  10042850     LIBCMTD:getqloc.obj
 0002:00004858       ??_C@_05BMOA@czech?$AA@    10042858     LIBCMTD:getqloc.obj
 0002:00004860       ??_C@_05NMPB@china?$AA@    10042860     LIBCMTD:getqloc.obj
 0002:00004868       ??_C@_07GN@britain?$AA@    10042868     LIBCMTD:getqloc.obj
 0002:00004870       ??_C@_07DLAK@america?$AA@  10042870     LIBCMTD:getqloc.obj
 0002:00004878       ??_C@_03IPEP@usa?$AA@      10042878     LIBCMTD:getqloc.obj
 0002:0000487c       ??_C@_02PILH@us?$AA@       1004287c     LIBCMTD:getqloc.obj
 0002:00004880       ??_C@_02FHP@uk?$AA@        10042880     LIBCMTD:getqloc.obj
 0002:00004884       ??_C@_05DEAI@swiss?$AA@    10042884     LIBCMTD:getqloc.obj
 0002:0000488c       ??_C@_0BA@LIAF@swedish?9finland?$AA@ 1004288c     LIBCMTD:getqloc.obj
 0002:0000489c       ??_C@_0BC@FMEG@spanish?9venezuela?$AA@ 1004289c     LIBCMTD:getqloc.obj
 0002:000048b0       ??_C@_0BA@BNMG@spanish?9uruguay?$AA@ 100428b0     LIBCMTD:getqloc.obj
 0002:000048c0       ??_C@_0BE@BKDJ@spanish?9puerto?5rico?$AA@ 100428c0     LIBCMTD:getqloc.obj
 0002:000048d4       ??_C@_0N@JIBL@spanish?9peru?$AA@ 100428d4     LIBCMTD:getqloc.obj
 0002:000048e4       ??_C@_0BB@OGOF@spanish?9paraguay?$AA@ 100428e4     LIBCMTD:getqloc.obj
 0002:000048f8       ??_C@_0P@LLFA@spanish?9panama?$AA@ 100428f8     LIBCMTD:getqloc.obj
 0002:00004908       ??_C@_0BC@BBJM@spanish?9nicaragua?$AA@ 10042908     LIBCMTD:getqloc.obj
 0002:0000491c       ??_C@_0P@NJBN@spanish?9modern?$AA@ 1004291c     LIBCMTD:getqloc.obj
 0002:0000492c       ??_C@_0BA@NHDN@spanish?9mexican?$AA@ 1004292c     LIBCMTD:getqloc.obj
 0002:0000493c       ??_C@_0BB@JHOJ@spanish?9honduras?$AA@ 1004293c     LIBCMTD:getqloc.obj
 0002:00004950       ??_C@_0BC@BOOM@spanish?9guatemala?$AA@ 10042950     LIBCMTD:getqloc.obj
 0002:00004964       ??_C@_0BE@EELI@spanish?9el?5salvador?$AA@ 10042964     LIBCMTD:getqloc.obj
 0002:00004978       ??_C@_0BA@POAE@spanish?9ecuador?$AA@ 10042978     LIBCMTD:getqloc.obj
 0002:00004988       ??_C@_0BL@LDKN@spanish?9dominican?5republic?$AA@ 10042988     LIBCMTD:getqloc.obj
 0002:000049a4       ??_C@_0BD@HPMH@spanish?9costa?5rica?$AA@ 100429a4     LIBCMTD:getqloc.obj
 0002:000049b8       ??_C@_0BB@NDDK@spanish?9colombia?$AA@ 100429b8     LIBCMTD:getqloc.obj
 0002:000049cc       ??_C@_0O@BJHA@spanish?9chile?$AA@ 100429cc     LIBCMTD:getqloc.obj
 0002:000049dc       ??_C@_0BA@OBNG@spanish?9bolivia?$AA@ 100429dc     LIBCMTD:getqloc.obj
 0002:000049ec       ??_C@_0BC@EFAM@spanish?9argentina?$AA@ 100429ec     LIBCMTD:getqloc.obj
 0002:00004a00       ??_C@_0BF@KMMM@portuguese?9brazilian?$AA@ 10042a00     LIBCMTD:getqloc.obj
 0002:00004a18       ??_C@_0BC@BAAE@norwegian?9nynorsk?$AA@ 10042a18     LIBCMTD:getqloc.obj
 0002:00004a2c       ??_C@_0BB@PBHK@norwegian?9bokmal?$AA@ 10042a2c     LIBCMTD:getqloc.obj
 0002:00004a40       ??_C@_09EHKL@norwegian?$AA@ 10042a40     LIBCMTD:getqloc.obj
 0002:00004a4c       ??_C@_0O@BEAN@italian?9swiss?$AA@ 10042a4c     LIBCMTD:getqloc.obj
 0002:00004a5c       ??_C@_0O@OIFK@irish?9english?$AA@ 10042a5c     LIBCMTD:getqloc.obj
 0002:00004a6c       ??_C@_0N@NBPL@german?9swiss?$AA@ 10042a6c     LIBCMTD:getqloc.obj
 0002:00004a7c       ??_C@_0BC@ICFJ@german?9luxembourg?$AA@ 10042a7c     LIBCMTD:getqloc.obj
 0002:00004a90       ??_C@_0BE@GGPC@german?9lichtenstein?$AA@ 10042a90     LIBCMTD:getqloc.obj
 0002:00004aa4       ??_C@_0BA@MKDC@german?9austrian?$AA@ 10042aa4     LIBCMTD:getqloc.obj
 0002:00004ab4       ??_C@_0N@ODNB@french?9swiss?$AA@ 10042ab4     LIBCMTD:getqloc.obj
 0002:00004ac4       ??_C@_0BC@MGCM@french?9luxembourg?$AA@ 10042ac4     LIBCMTD:getqloc.obj
 0002:00004ad8       ??_C@_0BA@NABK@french?9canadian?$AA@ 10042ad8     LIBCMTD:getqloc.obj
 0002:00004ae8       ??_C@_0P@CJNO@french?9belgian?$AA@ 10042ae8     LIBCMTD:getqloc.obj
 0002:00004af8       ??_C@_0M@LJOL@english?9usa?$AA@ 10042af8     LIBCMTD:getqloc.obj
 0002:00004b04       ??_C@_0L@FMNC@english?9us?$AA@ 10042b04     LIBCMTD:getqloc.obj
 0002:00004b10       ??_C@_0L@KBBK@english?9uk?$AA@ 10042b10     LIBCMTD:getqloc.obj
 0002:00004b1c       ??_C@_0BK@NDDE@english?9trinidad?5y?5tobago?$AA@ 10042b1c     LIBCMTD:getqloc.obj
 0002:00004b38       ??_C@_0BF@LKML@english?9south?5africa?$AA@ 10042b38     LIBCMTD:getqloc.obj
 0002:00004b50       ??_C@_0L@EGPP@english?9nz?$AA@ 10042b50     LIBCMTD:getqloc.obj
 0002:00004b5c       ??_C@_0BA@HLH@english?9jamaica?$AA@ 10042b5c     LIBCMTD:getqloc.obj
 0002:00004b6c       ??_C@_0M@PMJI@english?9ire?$AA@ 10042b6c     LIBCMTD:getqloc.obj
 0002:00004b78       ??_C@_0BC@HINE@english?9caribbean?$AA@ 10042b78     LIBCMTD:getqloc.obj
 0002:00004b8c       ??_C@_0M@DCFH@english?9can?$AA@ 10042b8c     LIBCMTD:getqloc.obj
 0002:00004b98       ??_C@_0P@DGHK@english?9belize?$AA@ 10042b98     LIBCMTD:getqloc.obj
 0002:00004ba8       ??_C@_0M@FLHK@english?9aus?$AA@ 10042ba8     LIBCMTD:getqloc.obj
 0002:00004bb4       ??_C@_0BB@HNCK@english?9american?$AA@ 10042bb4     LIBCMTD:getqloc.obj
 0002:00004bc8       ??_C@_0O@PAMI@dutch?9belgian?$AA@ 10042bc8     LIBCMTD:getqloc.obj
 0002:00004bd8       ??_C@_0BE@FPEJ@chinese?9traditional?$AA@ 10042bd8     LIBCMTD:getqloc.obj
 0002:00004bec       ??_C@_0BC@CHFL@chinese?9singapore?$AA@ 10042bec     LIBCMTD:getqloc.obj
 0002:00004c00       ??_C@_0BD@DCMH@chinese?9simplified?$AA@ 10042c00     LIBCMTD:getqloc.obj
 0002:00004c14       ??_C@_0BB@JMOE@chinese?9hongkong?$AA@ 10042c14     LIBCMTD:getqloc.obj
 0002:00004c28       ??_C@_07NGFN@chinese?$AA@  10042c28     LIBCMTD:getqloc.obj
 0002:00004c30       ??_C@_03PCOI@chi?$AA@      10042c30     LIBCMTD:getqloc.obj
 0002:00004c34       ??_C@_03FIHP@chh?$AA@      10042c34     LIBCMTD:getqloc.obj
 0002:00004c38       ??_C@_08HFLO@canadian?$AA@ 10042c38     LIBCMTD:getqloc.obj
 0002:00004c44       ??_C@_07INIJ@belgian?$AA@  10042c44     LIBCMTD:getqloc.obj
 0002:00004c4c       ??_C@_0L@LCCA@australian?$AA@ 10042c4c     LIBCMTD:getqloc.obj
 0002:00004c58       ??_C@_0BB@BJIO@american?9english?$AA@ 10042c58     LIBCMTD:getqloc.obj
 0002:00004c6c       ??_C@_0BB@DAGO@american?5english?$AA@ 10042c6c     LIBCMTD:getqloc.obj
 0002:00004c80       ??_C@_08HENB@american?$AA@ 10042c80     LIBCMTD:getqloc.obj
 0002:00004c8c       ??_C@_03DGJE@OCP?$AA@      10042c8c     LIBCMTD:getqloc.obj
 0002:00004c90       ??_C@_03EKFG@ACP?$AA@      10042c90     LIBCMTD:getqloc.obj
 0002:00004c94       ??_C@_08MOLN@mbtowc?4c?$AA@ 10042c94     LIBCMTD:mbtowc.obj
 0002:00004ca0       ??_C@_0CD@NPPL@MB_CUR_MAX?5?$DN?$DN?51?5?$HM?$HM?5MB_CUR_MAX?5?$DN?$DN@ 10042ca0     LIBCMTD:mbtowc.obj
 0002:00004cc4       ??_C@_06PAPI@1?$CDQNAN?$AA@ 10042cc4     LIBCMTD:x10fout.obj
 0002:00004ccc       ??_C@_05BGNL@1?$CDINF?$AA@ 10042ccc     LIBCMTD:x10fout.obj
 0002:00004cd4       ??_C@_05EDPF@1?$CDIND?$AA@ 10042cd4     LIBCMTD:x10fout.obj
 0002:00004cdc       ??_C@_06LKFM@1?$CDSNAN?$AA@ 10042cdc     LIBCMTD:x10fout.obj
 0002:00004ce4       ??_C@_07CJME@H?3mm?3ss?$AA@ 10042ce4     LIBCMTD:strftime.obj
 0002:00004cec       ??_C@_0BE@MHI@dddd?0?5MMMM?5dd?0?5yyyy?$AA@ 10042cec     LIBCMTD:strftime.obj
 0002:00004d00       ??_C@_06HCAD@M?1d?1yy?$AA@ 10042d00     LIBCMTD:strftime.obj
 0002:00004d08       ??_C@_02DBLP@PM?$AA@       10042d08     LIBCMTD:strftime.obj
 0002:00004d0c       ??_C@_02ENLM@AM?$AA@       10042d0c     LIBCMTD:strftime.obj
 0002:00004d10       ??_C@_08LIDF@December?$AA@ 10042d10     LIBCMTD:strftime.obj
 0002:00004d1c       ??_C@_08NJLI@November?$AA@ 10042d1c     LIBCMTD:strftime.obj
 0002:00004d28       ??_C@_07IAMM@October?$AA@  10042d28     LIBCMTD:strftime.obj
 0002:00004d30       ??_C@_09MKGD@September?$AA@ 10042d30     LIBCMTD:strftime.obj
 0002:00004d3c       ??_C@_06PADP@August?$AA@   10042d3c     LIBCMTD:strftime.obj
 0002:00004d44       ??_C@_04PIJO@July?$AA@     10042d44     LIBCMTD:strftime.obj
 0002:00004d4c       ??_C@_04ICFP@June?$AA@     10042d4c     LIBCMTD:strftime.obj
 0002:00004d54       ??_C@_05JFGC@April?$AA@    10042d54     LIBCMTD:strftime.obj
 0002:00004d5c       ??_C@_05FGPD@March?$AA@    10042d5c     LIBCMTD:strftime.obj
 0002:00004d64       ??_C@_08PGBA@February?$AA@ 10042d64     LIBCMTD:strftime.obj
 0002:00004d70       ??_C@_07BPKJ@January?$AA@  10042d70     LIBCMTD:strftime.obj
 0002:00004d78       ??_C@_03PGJO@Dec?$AA@      10042d78     LIBCMTD:strftime.obj
 0002:00004d7c       ??_C@_03PDLM@Nov?$AA@      10042d7c     LIBCMTD:strftime.obj
 0002:00004d80       ??_C@_03BLHK@Oct?$AA@      10042d80     LIBCMTD:strftime.obj
 0002:00004d84       ??_C@_03DPFM@Sep?$AA@      10042d84     LIBCMTD:strftime.obj
 0002:00004d88       ??_C@_03CMCH@Aug?$AA@      10042d88     LIBCMTD:strftime.obj
 0002:00004d8c       ??_C@_03OBKI@Jul?$AA@      10042d8c     LIBCMTD:strftime.obj
 0002:00004d90       ??_C@_03LEIG@Jun?$AA@      10042d90     LIBCMTD:strftime.obj
 0002:00004d94       ??_C@_03MGHB@May?$AA@      10042d94     LIBCMTD:strftime.obj
 0002:00004d98       ??_C@_03MJJM@Apr?$AA@      10042d98     LIBCMTD:strftime.obj
 0002:00004d9c       ??_C@_03GNHA@Mar?$AA@      10042d9c     LIBCMTD:strftime.obj
 0002:00004da0       ??_C@_03PICE@Feb?$AA@      10042da0     LIBCMTD:strftime.obj
 0002:00004da4       ??_C@_03IEIF@Jan?$AA@      10042da4     LIBCMTD:strftime.obj
 0002:00004da8       ??_C@_08FAKH@Saturday?$AA@ 10042da8     LIBCMTD:strftime.obj
 0002:00004db4       ??_C@_06ONCK@Friday?$AA@   10042db4     LIBCMTD:strftime.obj
 0002:00004dbc       ??_C@_08CCFO@Thursday?$AA@ 10042dbc     LIBCMTD:strftime.obj
 0002:00004dc8       ??_C@_09PBIN@Wednesday?$AA@ 10042dc8     LIBCMTD:strftime.obj
 0002:00004dd4       ??_C@_07BMBC@Tuesday?$AA@  10042dd4     LIBCMTD:strftime.obj
 0002:00004ddc       ??_C@_06CHLK@Monday?$AA@   10042ddc     LIBCMTD:strftime.obj
 0002:00004de4       ??_C@_06OOEM@Sunday?$AA@   10042de4     LIBCMTD:strftime.obj
 0002:00004dec       ??_C@_03MPKK@Sat?$AA@      10042dec     LIBCMTD:strftime.obj
 0002:00004df0       ??_C@_03FINJ@Fri?$AA@      10042df0     LIBCMTD:strftime.obj
 0002:00004df4       ??_C@_03HIKC@Thu?$AA@      10042df4     LIBCMTD:strftime.obj
 0002:00004df8       ??_C@_03HECK@Wed?$AA@      10042df8     LIBCMTD:strftime.obj
 0002:00004dfc       ??_C@_03ECCP@Tue?$AA@      10042dfc     LIBCMTD:strftime.obj
 0002:00004e00       ??_C@_03PIEP@Mon?$AA@      10042e00     LIBCMTD:strftime.obj
 0002:00004e04       ??_C@_03FHEP@Sun?$AA@      10042e04     LIBCMTD:strftime.obj
 0002:00004e08       ??_C@_03MKGK@a?1p?$AA@     10042e08     LIBCMTD:strftime.obj
 0002:00004e0c       ??_C@_05BDJK@am?1pm?$AA@   10042e0c     LIBCMTD:strftime.obj
 0002:00004e14       ??_C@_0L@HKCB@inithelp?4c?$AA@ 10042e14     LIBCMTD:inithelp.obj
 0002:00004e38       ??_C@_08EIOK@chsize?4c?$AA@ 10042e38     LIBCMTD:chsize.obj
 0002:00004e44       ??_C@_09NPGF@size?5?$DO?$DN?50?$AA@ 10042e44     LIBCMTD:chsize.obj
 0002:00004e50       ??_C@_0L@EJNO@wtombenv?4c?$AA@ 10042e50     LIBCMTD:wtombenv.obj
 0002:00004e7c       ??_C@_07FOIK@a_cmp?4c?$AA@ 10042e7c     LIBCMTD:a_cmp.obj
 0002:00004e84       ??_C@_0DN@PPKB@cchCount1?$DN?$DN0?5?$CG?$CG?5cchCount2?$DN?$DN1?5?$HM?$HM?5@ 10042e84     LIBCMTD:a_cmp.obj
 0002:00004ee0       ??_C@_08FEIK@setenv?4c?$AA@ 10042ee0     LIBCMTD:setenv.obj
 0002:00004eec       ??_C@_04GGNP@?4com?$AA@    10042eec     LIBCMTD:stat.obj
 0002:00004ef4       ??_C@_04KBDN@?4bat?$AA@    10042ef4     LIBCMTD:stat.obj
 0002:00004efc       ??_C@_04LFKF@?4cmd?$AA@    10042efc     LIBCMTD:stat.obj
 0002:00004f04       ??_C@_04NFOM@?4exe?$AA@    10042f04     LIBCMTD:stat.obj
 0002:00004f0c       ??_C@_03MNBA@?4?1?2?$AA@   10042f0c     LIBCMTD:stat.obj
 0002:00004f10       ??_C@_02DIIM@?$DP?$CK?$AA@ 10042f10     LIBCMTD:stat.obj
 0003:00000000       ___xc_a                    10044000     LIBCMTD:crt0init.obj
 0003:00000004       ___xc_z                    10044004     LIBCMTD:crt0init.obj
 0003:00000008       ___xi_a                    10044008     LIBCMTD:crt0init.obj
 0003:00000014       ___xi_z                    10044014     LIBCMTD:crt0init.obj
 0003:00000018       ___xp_a                    10044018     LIBCMTD:crt0init.obj
 0003:00000020       ___xp_z                    10044020     LIBCMTD:crt0init.obj
 0003:00000024       ___xt_a                    10044024     LIBCMTD:crt0init.obj
 0003:00000028       ___xt_z                    10044028     LIBCMTD:crt0init.obj
 0003:00000040       ?__LINE__Var@?1??MsgBoxBreak@@9@9 10044040     messages.obj
 0003:00000080       _parseKeys                 10044080     Readrul.obj
 0003:000000f0       __crtDbgFlag               100440f0     LIBCMTD:dbgheap.obj
 0003:000000f8       __crtBreakAlloc            100440f8     LIBCMTD:dbgheap.obj
 0003:00000114       __fltused                  10044114     LIBCMTD:fpinit.obj
 0003:00000118       __ldused                   10044118     LIBCMTD:fpinit.obj
 0003:0000011c       __FPinit                   1004411c     LIBCMTD:fpinit.obj
 0003:00000120       __FPmtinit                 10044120     LIBCMTD:fpinit.obj
 0003:00000124       __FPmtterm                 10044124     LIBCMTD:fpinit.obj
 0003:00000140       __half                     10044140     LIBCMTD:pow.obj
 0003:00000158       __iob                      10044158     LIBCMTD:_file.obj
 0003:000003e8       __crtAssertBusy            100443e8     LIBCMTD:dbgrpt.obj
 0003:000003ec       __CrtDbgMode               100443ec     LIBCMTD:dbgrpt.obj
 0003:000003f8       __CrtDbgFile               100443f8     LIBCMTD:dbgrpt.obj
 0003:00000440       __aexit_rtn                10044440     LIBCMTD:dllcrt0.obj
 0003:00000444       __locktable                10044444     LIBCMTD:mlock.obj
 0003:00000510       __pfnAllocHook             10044510     LIBCMTD:dbghook.obj
 0003:00000514       __amblksiz                 10044514     LIBCMTD:heapinit.obj
 0003:00000518       ___sbh_threshold           10044518     LIBCMTD:sbheap.obj
 0003:0000051c       __pctype                   1004451c     LIBCMTD:ctype.obj
 0003:00000520       __pwctype                  10044520     LIBCMTD:ctype.obj
 0003:00000524       __ctype                    10044524     LIBCMTD:ctype.obj
 0003:00000728       ___mb_cur_max              10044728     LIBCMTD:nlsdata1.obj
 0003:0000072c       ___decimal_point           1004472c     LIBCMTD:nlsdata1.obj
 0003:00000730       ___decimal_point_length    10044730     LIBCMTD:nlsdata1.obj
 0003:00000734       __cfltcvt_tab              10044734     LIBCMTD:cmiscdat.obj
 0003:0000074c       ___nullstring              1004474c     LIBCMTD:output.obj
 0003:00000750       ___wnullstring             10044750     LIBCMTD:output.obj
 0003:00000760       __infinity                 10044760     LIBCMTD:87tran.obj
 0003:0000076a       __minfinity                1004476a     LIBCMTD:87tran.obj
 0003:00000774       __logemax                  10044774     LIBCMTD:87tran.obj
 0003:0000079a       __OP_EXPjmptab             1004479a     LIBCMTD:87tran.obj
 0003:000007c0       __indefinite               100447c0     LIBCMTD:87disp.obj
 0003:000007ca       __piby2                    100447ca     LIBCMTD:87disp.obj
 0003:000008c8       __d_inf                    100448c8     LIBCMTD:util.obj
 0003:000008d0       __d_ind                    100448d0     LIBCMTD:util.obj
 0003:000008d8       __d_max                    100448d8     LIBCMTD:util.obj
 0003:000008e0       __d_min                    100448e0     LIBCMTD:util.obj
 0003:000008e8       __d_mzero                  100448e8     LIBCMTD:util.obj
 0003:00000a18       ___lc_category             10044a18     LIBCMTD:setlocal.obj
 0003:00000a60       ___badioinfo               10044a60     LIBCMTD:ioinit.obj
 0003:00000a84       ___tlsindex                10044a84     LIBCMTD:tidtable.obj
 0003:00000aa0       __sys_errlist              10044aa0     LIBCMTD:syserr.obj
 0003:00000b50       __sys_nerr                 10044b50     LIBCMTD:syserr.obj
 0003:00000cc0       __timezone                 10044cc0     LIBCMTD:timeset.obj
 0003:00000cc4       __daylight                 10044cc4     LIBCMTD:timeset.obj
 0003:00000cc8       __dstbias                  10044cc8     LIBCMTD:timeset.obj
 0003:00000d4c       __tzname                   10044d4c     LIBCMTD:timeset.obj
 0003:00000fa0       __matherr_flag             10044fa0     LIBCMTD:matherr.obj
 0003:00000fb0       ___rgLocInfo               10044fb0     LIBCMTD:getqloc.obj
 0003:00001454       ___rglangidNotDefault      10045454     LIBCMTD:getqloc.obj
 0003:00001468       ___rg_country              10045468     LIBCMTD:getqloc.obj
 0003:00001520       ___rg_language             10045520     LIBCMTD:getqloc.obj
 0003:00001728       __NLG_Destination          10045728     LIBCMTD:exsup.obj
 0003:00001738       __XcptActTab               10045738     LIBCMTD:winxfltr.obj
 0003:000017b0       __First_FPE_Indx           100457b0     LIBCMTD:winxfltr.obj
 0003:000017b4       __Num_FPE                  100457b4     LIBCMTD:winxfltr.obj
 0003:000017b8       __XcptActTabSize           100457b8     LIBCMTD:winxfltr.obj
 0003:000017bc       __XcptActTabCount          100457bc     LIBCMTD:winxfltr.obj
 0003:000017c0       __lpdays                   100457c0     LIBCMTD:days.obj
 0003:000017f4       __days                     100457f4     LIBCMTD:days.obj
 0003:00001920       ___lc_time_curr            10045920     LIBCMTD:strftime.obj
 0003:00001928       ___lc_time_c               10045928     LIBCMTD:strftime.obj
 0003:000019d8       ___lconv_static_decimal    100459d8     LIBCMTD:lconv.obj
 0003:000019e0       ___lconv_c                 100459e0     LIBCMTD:lconv.obj
 0003:00001a10       ___lconv                   10045a10     LIBCMTD:lconv.obj
 0003:00001a20       __pow10pos                 10045a20     LIBCMTD:constpow.obj
 0003:00001b80       __pow10neg                 10045b80     LIBCMTD:constpow.obj
 0003:00002b80       _blanksched                10046b80     pgfmain.obj
 0003:00003e34       ___fastflag                10047e34     LIBCMTD:fpinit.obj
 0003:00003e38       __adjust_fdiv              10047e38     LIBCMTD:fpinit.obj
 0003:00003e3c       __cflush                   10047e3c     LIBCMTD:_file.obj
 0003:00003e40       __umaskval                 10047e40     LIBCMTD:crt0dat.obj
 0003:00003e44       __osver                    10047e44     LIBCMTD:crt0dat.obj
 0003:00003e48       __winver                   10047e48     LIBCMTD:crt0dat.obj
 0003:00003e4c       __winmajor                 10047e4c     LIBCMTD:crt0dat.obj
 0003:00003e50       __winminor                 10047e50     LIBCMTD:crt0dat.obj
 0003:00003e54       ___argc                    10047e54     LIBCMTD:crt0dat.obj
 0003:00003e58       ___argv                    10047e58     LIBCMTD:crt0dat.obj
 0003:00003e5c       ___wargv                   10047e5c     LIBCMTD:crt0dat.obj
 0003:00003e60       __environ                  10047e60     LIBCMTD:crt0dat.obj
 0003:00003e64       ___initenv                 10047e64     LIBCMTD:crt0dat.obj
 0003:00003e68       __wenviron                 10047e68     LIBCMTD:crt0dat.obj
 0003:00003e6c       ___winitenv                10047e6c     LIBCMTD:crt0dat.obj
 0003:00003e70       __pgmptr                   10047e70     LIBCMTD:crt0dat.obj
 0003:00003e74       __wpgmptr                  10047e74     LIBCMTD:crt0dat.obj
 0003:00003e78       __exitflag                 10047e78     LIBCMTD:crt0dat.obj
 0003:00003e7c       __C_Termination_Done       10047e7c     LIBCMTD:crt0dat.obj
 0003:00003e80       __C_Exit_Done              10047e80     LIBCMTD:crt0dat.obj
 0003:00003ec8       __aenvptr                  10047ec8     LIBCMTD:dllcrt0.obj
 0003:00003ecc       __wenvptr                  10047ecc     LIBCMTD:dllcrt0.obj
 0003:00003ed0       ___error_mode              10047ed0     LIBCMTD:dllcrt0.obj
 0003:00003ed4       ___app_type                10047ed4     LIBCMTD:dllcrt0.obj
 0003:00003ed8       __newmode                  10047ed8     LIBCMTD:_newmode.obj
 0003:00003edc       ?_pnhHeap@@3P6AHI@ZA       10047edc     LIBCMTD:handler.obj
 0003:00003f40       __stdbuf                   10047f40     LIBCMTD:_sftbuf.obj
 0003:00003f54       ___lc_handle               10047f54     LIBCMTD:nlsdata2.obj
 0003:00003f6c       ___lc_codepage             10047f6c     LIBCMTD:nlsdata2.obj
 0003:00003f70       ___lc_collate_cp           10047f70     LIBCMTD:nlsdata2.obj
 0003:00004184       __adbgmsg                  10048184     LIBCMTD:crt0msg.obj
 0003:0000418c       ___lc_time_intl            1004818c     LIBCMTD:inittime.obj
 0003:000041a8       ___lc_id                   100481a8     LIBCMTD:nlsdata3.obj
 0003:000041f0       __commode                  100481f0     LIBCMTD:ncommode.obj
 0003:00004200       ___lconv_static_null       10048200     LIBCMTD:lconv.obj
 0003:00004208       __fmode                    10048208     LIBCMTD:txtmode.obj
 0003:00004220       _tcoursedata               10048220     <common>
 0003:00006a20       _strTimecourse             1004aa20     <common>
 0003:00016a20       _ntcoursedata              1005aa20     <common>
 0003:00016a24       _muindex                   1005aa24     <common>
 0003:00016a40       _base_kill                 1005aa40     <common>
 0003:00016a90       _IfAnyPGP                  1005aa90     <common>
 0003:00016a94       _minsearch                 1005aa94     <common>
 0003:00016a98       _Base_Conversion_Time      1005aa98     <common>
 0003:00016aa0       _coindex                   1005aaa0     <common>
 0003:00016aa4       _migindex                  1005aaa4     <common>
 0003:00016aa8       _gompindex                 1005aaa8     <common>
 0003:00016aac       _blindex                   1005aaac     <common>
 0003:00016ab0       _fp                        1005aab0     <common>
 0003:00016ac0       _PlotProperty              1005aac0     <common>
 0003:00016b88       _SubsetOption              1005ab88     <common>
 0003:00016b8c       _numPlotProperty           1005ab8c     <common>
 0003:00016b90       _numPlotLines              1005ab90     <common>
 0003:00016ba0       _PlotSubset                1005aba0     <common>
 0003:00016c40       _PlotLineName              1005ac40     <common>
 0003:00019e10       _cellIndicesToPlot         1005de10     <common>
 0003:00019e14       _numPlotSubset             1005de14     <common>
 0003:00019e18       _PlotOption                1005de18     <common>
 0003:00019e1c       _numCellIndicesToPlot      1005de1c     <common>
 0003:00019e20       _maxCellIndicesToPlot      1005de20     <common>
 0003:00019e28       _PET_final                 1005de28     <common>
 0003:00019e30       _r_Final                   1005de30     <common>
 0003:00019e38       _Val_Final                 1005de38     <common>
 0003:00019e40       _AB_array_P1               1005de40     <common>
 0003:00070da0       _AB_array_P2               100b4da0     <common>
 0003:000c7ce8       _n_final                   1010bce8     <common>
 0003:000c7cec       _n1_final                  1010bcec     <common>
 0003:000c7d00       _b_array_P2                1010bd00     <common>
 0003:0011ec60       _b_array_P1                10162c60     <common>
 0003:00175ba8       _r1_Final                  101b9ba8     <common>
 0003:00175bb0       _g                         101b9bb0     <common>
 0003:00175bb8       _kappa                     101b9bb8     <common>
 0003:00175bc0       _w                         101b9bc0     <common>
 0003:00175bc8       _lamr                      101b9bc8     <common>
 0003:00175bd0       _lams                      101b9bd0     <common>
 0003:00175bd8       _gratio                    101b9bd8     <common>
 0003:00175be0       _rho                       101b9be0     <common>
 0003:00175be8       _xrate                     101b9be8     <common>
 0003:00175bf0       _x1                        101b9bf0     <common>
 0003:00175bf8       _x2                        101b9bf8     <common>
 0003:00175c00       _pgftemp                   101b9c00     <common>
 0003:00175c08       _psi0                      101b9c08     <common>
 0003:00175c10       _rinc                      101b9c10     <common>
 0003:00175c18       _psit                      101b9c18     <common>
 0003:00175c20       _sinc                      101b9c20     <common>
 0003:00175c28       _crate                     101b9c28     <common>
 0003:00175c30       _range                     101b9c30     <common>
 0003:00175c40       _wmessage                  101b9c40     <common>
 0003:00175d40       _answer                    101b9d40     <common>
 0003:00175d48       _MEndSim                   101b9d48     <common>
 0003:00175d50       _SeedList                  101b9d50     <common>
 0003:00175d5c       _repetitions               101b9d5c     <common>
 0003:00175d60       _InitialOption             101b9d60     <common>
 0003:00175d64       _IsSetPara                 101b9d64     <common>
 0003:00175d68       _lookup_size               101b9d68     <common>
 0003:00175d6c       _gomppara_size             101b9d6c     <common>
 0003:00175d70       _nICrules                  101b9d70     <common>
 0003:00175d80       _Environments              101b9d80     <common>
 0003:00176180       _icRules                   101ba180     <common>
 0003:00178520       _BBRules                   101bc520     <common>
 0003:0017a7d0       _nRules                    101be7d0     <common>
 0003:0017a7d4       _nentry                    101be7d4     <common>
 0003:0017a7d8       _Tblength                  101be7d8     <common>
 0003:0017a7e0       _logfilename               101be7e0     <common>
 0003:0017a828       _logfile                   101be828     <common>
 0003:0017a82c       _timeinfo                  101be82c     <common>
 0003:0017a830       _rawtime                   101be830     <common>
 0003:0017a838       _mincycletime              101be838     <common>
 0003:0017a840       _Number_of_Gomp_Classes    101be840     <common>
 0003:0017a844       _macro_block_length        101be844     <common>
 0003:0017a848       _Base_Doubling_Time        101be848     <common>
 0003:0017a850       _Base_Cycling_Switch       101be850     <common>
 0003:0017a854       _TotalRules                101be854     <common>
 0003:0017a858       _num_macro_nodes           101be858     <common>
 0003:0017a85c       _BottomDrug                101be85c     <common>
 0003:0017a860       _Base_Death_Time           101be860     <common>
 0003:0017a868       _Kinetic_Changes           101be868     <common>
 0003:0017a86c       _TotalSingleRules          101be86c     <common>
 0003:0017a870       _Base_GompSplit            101be870     <common>
 0003:0017a880       _Rules                     101be880     <common>
 0003:001c0150       _Number_of_Classes         10204150     <common>
 0003:001c0154       _Base_Death_Switch         10204154     <common>
 0003:001c0158       _Base_GompPlateau          10204158     <common>
 0003:001c0160       _Base_Cycling_Time         10204160     <common>
 0003:001c0168       _TopDrug                   10204168     <common>
 0003:001c0170       _Base_G0_Time              10204170     <common>
 0003:001c0180       _Class                     10204180     <common>
 0003:00436e00       _Combos                    1047ae00     <common>
 0003:00443a20       _TreatmentApplication      10487a20     <common>
 0003:00443a60       _Regimens                  10487a60     <common>
 0003:00451c00       _Courses                   10495c00     <common>
 0003:0045e9a0       _ComboAndCourseAgent       104a29a0     <common>
 0003:0045eba0       _DoseMods                  104a2ba0     <common>
 0003:0045fba0       _ToxTypes                  104a3ba0     <common>
 0003:00461298       _nToxResolutions           104a5298     <common>
 0003:0046129c       _RandInit                  104a529c     <common>
 0003:004612a0       _nToxTypes                 104a52a0     <common>
 0003:004612a4       _nDoseMods                 104a52a4     <common>
 0003:004612c0       _Agents                    104a52c0     <common>
 0003:00473800       _ToxResolutions            104b7800     <common>
 0003:004846f0       _nextToxTime               104c86f0     <common>
 0003:004846f8       _GuaranteeReset            104c86f8     <common>
 0003:00484700       _delta_t                   104c8700     <common>
 0003:00484708       _SleepTime                 104c8708     <common>
 0003:0048470c       _DiagnosedNow              104c870c     <common>
 0003:00484710       _nvars                     104c8710     <common>
 0003:00484718       _death_threshold           104c8718     <common>
 0003:00484720       _condition                 104c8720     <common>
 0003:00486cf0       _nowenv                    104cacf0     <common>
 0003:00486cf8       _LogStd                    104cacf8     <common>
 0003:00486d00       _TCAPVERSION               104cad00     <common>
 0003:00486e00       _ndrugs                    104cae00     <common>
 0003:00486e04       _TrialSim                  104cae04     <common>
 0003:00486e20       _a                         104cae20     <common>
 0003:004887a0       _b                         104cc7a0     <common>
 0003:004888c0       _c                         104cc8c0     <common>
 0003:00488980       _templine                  104cc980     <common>
 0003:004889b8       _INFINITY                  104cc9b8     <common>
 0003:004889c0       _n                         104cc9c0     <common>
 0003:00488a80       _nprobs                    104cca80     <common>
 0003:00488a88       _t                         104cca88     <common>
 0003:00488a90       _EndSim                    104cca90     <common>
 0003:00488a94       _MaxLookUp                 104cca94     <common>
 0003:00488aa0       _dosefactorlist            104ccaa0     <common>
 0003:004a6050       _firstTreatmentTime        104ea050     <common>
 0003:004a6060       _CTReg                     104ea060     <common>
 0003:004a81e8       _CombinedTumorSizeAtFirstTreatment 104ec1e8     <common>
 0003:004a81f0       _MaxGroup                  104ec1f0     <common>
 0003:004a81f8       _gomppara                  104ec1f8     <common>
 0003:004a8200       _GompSum                   104ec200     <common>
 0003:004a8204       _PostEvent                 104ec204     <common>
 0003:004a8208       _InitMean                  104ec208     <common>
 0003:004a8220       _dnt                       104ec220     <common>
 0003:004a8240       _kina_para                 104ec240     <common>
 0003:004ac1f8       _RandFunc                  104f01f8     <common>
 0003:004ac200       _transition_para           104f0200     <common>
 0003:004ac220       _HasGuaranteeTimeChecked   104f0220     <common>
 0003:004ac240       _wvec                      104f0240     <common>
 0003:004ac3e0       _init_active_ntypes        104f03e0     <common>
 0003:004ac400       _cellstart                 104f0400     <common>
 0003:004ac5a0       _err                       104f05a0     <common>
 0003:004ac5a8       _gomp_level                104f05a8     <common>
 0003:004ac5b0       _migration_para            104f05b0     <common>
 0003:004ac5c0       _temppara                  104f05c0     <common>
 0003:004ac5e8       _StartT                    104f05e8     <common>
 0003:004ac5f0       _OffTrial                  104f05f0     <common>
 0003:004ac5f4       _ier                       104f05f4     <common>
 0003:004ac600       _CurrentlyDiagnosed        104f0600     <common>
 0003:004ac660       _sched                     104f0660     <common>
 0003:004b43a0       _SimRunning                104f83a0     <common>
 0003:004b43a8       _LogMean                   104f83a8     <common>
 0003:004b43c0       _stdinname                 104f83c0     <common>
 0003:004b4420       _deltan                    104f8420     <common>
 0003:004b44e0       _ResponseHappened          104f84e0     <common>
 0003:004b4534       _infil                     104f8534     <common>
 0003:004b4538       _response_threshold        104f8538     <common>
 0003:004b4540       _LocationClass             104f8540     <common>
 0003:004b4560       _ttynam                    104f8560     <common>
 0003:004b45c0       _LookUpId                  104f85c0     <common>
 0003:004b4750       _Memory                    104f8750     <common>
 0003:004b4760       _drugname                  104f8760     <common>
 0003:004b4b98       _cellp_eout                104f8b98     <common>
 0003:004b4b9c       _TSFirstTreatmentHappened  104f8b9c     <common>
 0003:004b4ba0       _change_index              104f8ba0     <common>
 0003:004b4bc0       _CTPhase2Trial             104f8bc0     <common>
 0003:004b7820       _BeginPlotTime             104fb820     <common>
 0003:004b7828       _dtemp                     104fb828     <common>
 0003:004b7830       _CN                        104fb830     <common>
 0003:004b7840       _CTCourses                 104fb840     <common>
 0003:004b7860       _gompsum                   104fb860     <common>
 0003:004b7870       _fsched                    104fb870     <common>
 0003:004b7878       _tau                       104fb878     <common>
 0003:004b7880       _qsamedoub                 104fb880     <common>
 0003:004b7888       _InitialPrimaryTumorSize   104fb888     <common>
 0003:004b7890       _running                   104fb890     <common>
 0003:004b7898       _PE_diagnosis_threshold    104fb898     <common>
 0003:004b78a0       _cellindices               104fb8a0     <common>
 0003:004b78c0       _val                       104fb8c0     <common>
 0003:004b7980       _WorkingDir                104fb980     <common>
 0003:004b7a80       _qnodeath                  104fba80     <common>
 0003:004b7a88       _previousCombinedTumorSize 104fba88     <common>
 0003:004b7a90       _ofil                      104fba90     <common>
 0003:004b7aa0       _mutation_para             104fbaa0     <common>
 0003:004b7ac0       _timevec                   104fbac0     <common>
 0003:004b9a10       _KineticsUnchecked         104fda10     <common>
 0003:004b9a14       _GompPr                    104fda14     <common>
 0003:004b9a18       _LR_diagnosis_threshold    104fda18     <common>
 0003:004b9a20       _InitTotal                 104fda20     <common>
 0003:004b9a40       _envlist                   104fda40     <common>
 0003:004bd8e0       _nSavedDoses               105018e0     <common>
 0003:004bd920       _wvalue                    10501920     <common>
 0003:004bd928       _m1                        10501928     <common>
 0003:004bd92c       _m2                        1050192c     <common>
 0003:004bd930       _nenvlist                  10501930     <common>
 0003:004bd938       _EndPlotTime               10501938     <common>
 0003:004bd940       _ch                        10501940     <common>
 0003:004bd944       _IsMeanOnly                10501944     <common>
 0003:004bd960       _DiagnosedOnce             10501960     <common>
 0003:004bd9b4       _nconds                    105019b4     <common>
 0003:004bd9b8       _ia                        105019b8     <common>
 0003:004bd9c0       _is                        105019c0     <common>
 0003:004bd9e0       _command                   105019e0     <common>
 0003:004bda28       _aerr                      10501a28     <common>
 0003:004bda30       _nenvirons                 10501a30     <common>
 0003:004bda34       _active_ntypes             10501a34     <common>
 0003:004bda40       _infilname                 10501a40     <common>
 0003:004bda88       _ns                        10501a88     <common>
 0003:004bda8c       _nt                        10501a8c     <common>
 0003:004bda90       _nv                        10501a90     <common>
 0003:004bda94       _MaxDrop                   10501a94     <common>
 0003:004bda98       _Dead                      10501a98     <common>
 0003:004bda9c       _pre_ntypes                10501a9c     <common>
 0003:004bdaa0       _rw                        10501aa0     <common>
 0003:004bdac0       _Response                  10501ac0     <common>
 0003:004bdae0       _maxval                    10501ae0     <common>
 0003:004bdb00       _TreatmentandTime          10501b00     <common>
 0003:004bdc20       _GPORINV                   10501c20     <common>
 0003:004bdc40       _lookup                    10501c40     <common>
 0003:004bdca0       _TumorCombinationFactor    10501ca0     <common>
 0003:004bdcc0       _CCLASS                    10501cc0     <common>
 0003:004bdda0       _PartialResponse           10501da0     <common>
 0003:004bddc0       _TreatmentIdxList          10501dc0     <common>
 0003:004cc8a0       _doselist                  105108a0     <common>
 0003:004e9e50       _UserSetSeeds              1052de50     <common>
 0003:004e9e54       _fillgap                   1052de54     <common>
 0003:004e9e60       _outName                   1052de60     <common>
 0003:004e9e80       _rerr                      1052de80     <common>
 0003:004e9e90       _para_struct               1052de90     <common>
 0003:004e9e9c       _celpltfile                1052de9c     <common>
 0003:004e9ea0       _PrintGap                  1052dea0     <common>
 0003:004e9ea8       _error                     1052dea8     <common>
 0003:004e9eb0       _TSSecondTreatmentHappened 1052deb0     <common>
 0003:004e9ec0       _CNsave                    1052dec0     <common>
 0003:004e9ed0       _PrimaryTumor              1052ded0     <common>
 0003:004e9ed4       _ncellindices              1052ded4     <common>
 0003:004e9ed8       _initCellVector            1052ded8     <common>
 0003:004e9edc       _ntypes                    1052dedc     <common>
 0003:004e9ee0       _CTTreatment               1052dee0     <common>
 0003:004edee0       _psol                      10531ee0     <common>
 0003:004edfa0       _bound                     10531fa0     <common>
 0003:004ee060       _Event_List                10532060     <common>
 0003:0054dba0       _verbose                   10591ba0     <common>
 0003:0054dba4       _nallts                    10591ba4     <common>
 0003:0054dbc0       _CLEVEL                    10591bc0     <common>
 0003:0054dc88       _TreatmentCount            10591c88     <common>
 0003:0054dc90       _EndT                      10591c90     <common>
 0003:0054dc98       _KineticsModel             10591c98     <common>
 0003:0054dc9c       _cellpitime                10591c9c     <common>
 0003:0054dca0       _topkill                   10591ca0     <common>
 0003:0054dca8       _nEvents                   10591ca8     <common>
 0003:0054dcac       _MaxNameLength             10591cac     <common>
 0003:0054dcb0       _TumorExaminationInterval  10591cb0     <common>
 0003:0054dcb8       _Cured                     10591cb8     <common>
 0003:0054dcc0       _theta                     10591cc0     <common>
 0003:0054dcc8       _OrganMetOpt               10591cc8     <common>
 0003:0054dce0       _ArchiveDir                10591ce0     <common>
 0003:0054dde0       _INFINITESIMAL             10591de0     <common>
 0003:0054de00       _smask                     10591e00     <common>
 0003:0054dfa0       _botkill                   10591fa0     <common>
 0003:0054dfa8       _verbos                    10591fa8     <common>
 0003:0054dfc0       _ndoses                    10591fc0     <common>
 0003:0054e000       _qaxis                     10592000     <common>
 0003:0054e060       _CompleteResponse          10592060     <common>
 0003:0054e080       _nbins                     10592080     <common>
 0003:0054e084       _nrepetitions              10592084     <common>
 0003:0054e0a0       _previousCellCount         105920a0     <common>
 0003:0054e148       _nsched                    10592148     <common>
 0003:0054e160       _strTCAPVERSION            10592160     <common>
 0003:0054e260       _CNcopy                    10592260     <common>
 0003:0054e264       _LookUp                    10592264     <common>
 0003:0054e280       _previousCellCountAtEval   10592280     <common>
 0003:0054e328       _PlotData                  10592328     <common>
 0003:0054e32c       _PrimaryDiagnosed          1059232c     <common>
 0003:0054e330       _ranSeed1                  10592330     <common>
 0003:0054e334       _ranSeed2                  10592334     <common>
 0003:0054e340       _slist                     10592340     <common>
 0003:0054e450       _ranSeed3                  10592450     <common>
 0003:0054e460       _typename                  10592460     <common>
 0003:00550d00       _IDThreadCellP             10594d00     <common>
 0003:00550d20       _jpgfvec                   10594d20     <common>
 0003:00550ec0       _GompRule                  10594ec0     <common>
 0003:0056a000       _svec                      105ae000     <common>
 0003:0056a1a0       _deltakill                 105ae1a0     <common>
 0003:0056a1a8       _nloops                    105ae1a8     <common>
 0003:0056a1c0       _CTToxicity                105ae1c0     <common>
 0003:0056a2e0       _ofilname                  105ae2e0     <common>
 0003:0056a340       _dsol                      105ae340     <common>
 0003:0056a450       _CoVar                     105ae450     <common>
 0003:0056a458       _AfterFirstTreatment       105ae458     <common>
 0003:0056a460       _CellCountAtFirstTreatment 105ae460     <common>
 0003:0056a508       _OrganFunc                 105ae508     <common>
 0003:0056a520       _TrialInfo                 105ae520     <common>
 0003:0056d180       _probtest                  105b1180     <common>
 0003:0056d280       _qsamecyclet               105b1280     <common>
 0003:0056d284       _NumGompRules              105b1284     <common>
 0003:0056d288       _numTest                   105b1288     <common>
 0003:0056d28c       _eout                      105b128c     <common>
 0003:0056d290       _numCTTreatments           105b1290     <common>
 0003:0056d298       _UpdateTime                105b1298     <common>
 0003:0056d2a0       _TimeToChangeEnv           105b12a0     <common>
 0003:0056d2a8       _PendingEnvChange          105b12a8     <common>
 0003:0056d2ac       _ContinDrugRuleActive      105b12ac     <common>
 0003:0056d2b0       _EnvToChangeTo             105b12b0     <common>
 0003:0056d2b4       _FALSEVAL                  105b12b4     <common>
 0003:0056d2b8       _TRUEVAL                   105b12b8     <common>
 0003:0056d2bc       _nUserAddedVars            105b12bc     <common>
 0003:0056d2c0       _gblBB                     105b12c0     <common>
 0003:0056d2e0       _UserAddedVars             105b12e0     <common>
 0003:00570800       ___alternate_form          105b4800     <common>
 0003:00570804       ___no_lead_zeros           105b4804     <common>
 0003:00570808       ___mbcodepage              105b4808     <common>
 0003:00570810       ___mbulinfo                105b4810     <common>
 0003:0057081c       ___ismbcodepage            105b481c     <common>
 0003:00570820       __mbcasemap                105b4820     <common>
 0003:00570920       __mbctype                  105b4920     <common>
 0003:00570a24       ___mblcid                  105b4a24     <common>
 0003:00570a40       ___pioinfo                 105b4a40     <common>
 0003:00570b40       __nhandle                  105b4b40     <common>
 0003:00570b44       ___setlc_active            105b4b44     <common>
 0003:00570b48       ___unguarded_readlc_active 105b4b48     <common>
 0003:00570b4c       ___sbh_sizeHeaderList      105b4b4c     <common>
 0003:00570b50       ___sbh_indGroupDefer       105b4b50     <common>
 0003:00570b54       ___sbh_pHeaderScan         105b4b54     <common>
 0003:00570b58       ___sbh_pHeaderDefer        105b4b58     <common>
 0003:00570b5c       ___sbh_cntHeaderList       105b4b5c     <common>
 0003:00570b60       ___sbh_pHeaderList         105b4b60     <common>
 0003:00570b64       __crtheap                  105b4b64     <common>
 0003:00570b68       __acmdln                   105b4b68     <common>
 0003:00570b6c       __pRawDllMain              105b4b6c     <common>
 0003:00570b70       __pfnReportHook            105b4b70     <common>
 0003:00570b74       ___env_initialized         105b4b74     <common>
 0003:00570b78       ___mbctype_initialized     105b4b78     <common>
 0003:00570b7c       ___onexitend               105b4b7c     <common>
 0003:00570b80       ___onexitbegin             105b4b80     <common>
 0003:00570b84       ___piob                    105b4b84     <common>
 0003:00570ba0       __bufin                    105b4ba0     <common>
 0003:00571ba0       __nstream                  105b5ba0     <common>
 0003:00571ba4       __pfnDumpClient            105b5ba4     <common>
 0004:00000000       __IMPORT_DESCRIPTOR_KERNEL32 105b6000     kernel32:KERNEL32.dll
 0004:00000014       __IMPORT_DESCRIPTOR_USER32 105b6014     user32:USER32.dll
 0004:00000028       __IMPORT_DESCRIPTOR_ADVAPI32 105b6028     advapi32:ADVAPI32.dll
 0004:0000003c       __IMPORT_DESCRIPTOR_OLEAUT32 105b603c     oleaut32:OLEAUT32.dll
 0004:00000050       __NULL_IMPORT_DESCRIPTOR   105b6050     kernel32:KERNEL32.dll
 0004:000001ec       __imp__RegOpenKeyExA@20    105b61ec     advapi32:ADVAPI32.dll
 0004:000001f0       __imp__RegCloseKey@4       105b61f0     advapi32:ADVAPI32.dll
 0004:000001f4       __imp__RegQueryValueExA@24 105b61f4     advapi32:ADVAPI32.dll
 0004:000001f8       \177ADVAPI32_NULL_THUNK_DATA 105b61f8     advapi32:ADVAPI32.dll
 0004:000001fc       __imp__GetFullPathNameA@16 105b61fc     kernel32:KERNEL32.dll
 0004:00000200       __imp__InterlockedExchange@8 105b6200     kernel32:KERNEL32.dll
 0004:00000204       __imp__GetEnvironmentVariableA@12 105b6204     kernel32:KERNEL32.dll
 0004:00000208       __imp__GetCurrentDirectoryA@8 105b6208     kernel32:KERNEL32.dll
 0004:0000020c       __imp__Sleep@4             105b620c     kernel32:KERNEL32.dll
 0004:00000210       __imp__FindFirstFileA@8    105b6210     kernel32:KERNEL32.dll
 0004:00000214       __imp__GetDriveTypeA@4     105b6214     kernel32:KERNEL32.dll
 0004:00000218       __imp__IsBadWritePtr@8     105b6218     kernel32:KERNEL32.dll
 0004:0000021c       __imp__IsBadReadPtr@8      105b621c     kernel32:KERNEL32.dll
 0004:00000220       __imp__HeapValidate@12     105b6220     kernel32:KERNEL32.dll
 0004:00000224       __imp__InterlockedDecrement@4 105b6224     kernel32:KERNEL32.dll
 0004:00000228       __imp__InterlockedIncrement@4 105b6228     kernel32:KERNEL32.dll
 0004:0000022c       __imp__EnterCriticalSection@4 105b622c     kernel32:KERNEL32.dll
 0004:00000230       __imp__LeaveCriticalSection@4 105b6230     kernel32:KERNEL32.dll
 0004:00000234       __imp__ExitProcess@4       105b6234     kernel32:KERNEL32.dll
 0004:00000238       __imp__TerminateProcess@8  105b6238     kernel32:KERNEL32.dll
 0004:0000023c       __imp__GetCurrentProcess@0 105b623c     kernel32:KERNEL32.dll
 0004:00000240       __imp__DebugBreak@0        105b6240     kernel32:KERNEL32.dll
 0004:00000244       __imp__GetStdHandle@4      105b6244     kernel32:KERNEL32.dll
 0004:00000248       __imp__WriteFile@20        105b6248     kernel32:KERNEL32.dll
 0004:0000024c       __imp__OutputDebugStringA@4 105b624c     kernel32:KERNEL32.dll
 0004:00000250       __imp__GetProcAddress@8    105b6250     kernel32:KERNEL32.dll
 0004:00000254       __imp__LoadLibraryA@4      105b6254     kernel32:KERNEL32.dll
 0004:00000258       __imp__GetModuleFileNameA@12 105b6258     kernel32:KERNEL32.dll
 0004:0000025c       __imp__GetTimeZoneInformation@4 105b625c     kernel32:KERNEL32.dll
 0004:00000260       __imp__GetSystemTime@4     105b6260     kernel32:KERNEL32.dll
 0004:00000264       __imp__GetLocalTime@4      105b6264     kernel32:KERNEL32.dll
 0004:00000268       __imp__GetCommandLineA@0   105b6268     kernel32:KERNEL32.dll
 0004:0000026c       __imp__GetVersion@0        105b626c     kernel32:KERNEL32.dll
 0004:00000270       __imp__InitializeCriticalSection@4 105b6270     kernel32:KERNEL32.dll
 0004:00000274       __imp__DeleteCriticalSection@4 105b6274     kernel32:KERNEL32.dll
 0004:00000278       __imp__FatalAppExitA@8     105b6278     kernel32:KERNEL32.dll
 0004:0000027c       __imp__HeapAlloc@12        105b627c     kernel32:KERNEL32.dll
 0004:00000280       __imp__HeapReAlloc@16      105b6280     kernel32:KERNEL32.dll
 0004:00000284       __imp__HeapFree@12         105b6284     kernel32:KERNEL32.dll
 0004:00000288       __imp__GetLastError@0      105b6288     kernel32:KERNEL32.dll
 0004:0000028c       __imp__HeapDestroy@4       105b628c     kernel32:KERNEL32.dll
 0004:00000290       __imp__HeapCreate@12       105b6290     kernel32:KERNEL32.dll
 0004:00000294       __imp__VirtualFree@12      105b6294     kernel32:KERNEL32.dll
 0004:00000298       __imp__VirtualAlloc@16     105b6298     kernel32:KERNEL32.dll
 0004:0000029c       __imp__GetModuleHandleA@4  105b629c     kernel32:KERNEL32.dll
 0004:000002a0       __imp__RaiseException@16   105b62a0     kernel32:KERNEL32.dll
 0004:000002a4       __imp__WideCharToMultiByte@32 105b62a4     kernel32:KERNEL32.dll
 0004:000002a8       __imp__MultiByteToWideChar@24 105b62a8     kernel32:KERNEL32.dll
 0004:000002ac       __imp__LCMapStringA@24     105b62ac     kernel32:KERNEL32.dll
 0004:000002b0       __imp__LCMapStringW@24     105b62b0     kernel32:KERNEL32.dll
 0004:000002b4       __imp__SetHandleCount@4    105b62b4     kernel32:KERNEL32.dll
 0004:000002b8       __imp__GetFileType@4       105b62b8     kernel32:KERNEL32.dll
 0004:000002bc       __imp__GetStartupInfoA@4   105b62bc     kernel32:KERNEL32.dll
 0004:000002c0       __imp__GetCurrentThreadId@0 105b62c0     kernel32:KERNEL32.dll
 0004:000002c4       __imp__TlsSetValue@8       105b62c4     kernel32:KERNEL32.dll
 0004:000002c8       __imp__TlsAlloc@0          105b62c8     kernel32:KERNEL32.dll
 0004:000002cc       __imp__TlsFree@4           105b62cc     kernel32:KERNEL32.dll
 0004:000002d0       __imp__SetLastError@4      105b62d0     kernel32:KERNEL32.dll
 0004:000002d4       __imp__TlsGetValue@4       105b62d4     kernel32:KERNEL32.dll
 0004:000002d8       __imp__GetCurrentThread@0  105b62d8     kernel32:KERNEL32.dll
 0004:000002dc       __imp__SetConsoleCtrlHandler@8 105b62dc     kernel32:KERNEL32.dll
 0004:000002e0       __imp__CloseHandle@4       105b62e0     kernel32:KERNEL32.dll
 0004:000002e4       __imp__ReadFile@20         105b62e4     kernel32:KERNEL32.dll
 0004:000002e8       __imp__SetStdHandle@8      105b62e8     kernel32:KERNEL32.dll
 0004:000002ec       __imp__FlushFileBuffers@4  105b62ec     kernel32:KERNEL32.dll
 0004:000002f0       __imp__FreeEnvironmentStringsA@4 105b62f0     kernel32:KERNEL32.dll
 0004:000002f4       __imp__FreeEnvironmentStringsW@4 105b62f4     kernel32:KERNEL32.dll
 0004:000002f8       __imp__GetEnvironmentStrings@0 105b62f8     kernel32:KERNEL32.dll
 0004:000002fc       __imp__GetEnvironmentStringsW@0 105b62fc     kernel32:KERNEL32.dll
 0004:00000300       __imp__GetStringTypeA@20   105b6300     kernel32:KERNEL32.dll
 0004:00000304       __imp__GetStringTypeW@16   105b6304     kernel32:KERNEL32.dll
 0004:00000308       __imp__SetFilePointer@16   105b6308     kernel32:KERNEL32.dll
 0004:0000030c       __imp__GetCPInfo@8         105b630c     kernel32:KERNEL32.dll
 0004:00000310       __imp__IsValidLocale@8     105b6310     kernel32:KERNEL32.dll
 0004:00000314       __imp__IsValidCodePage@4   105b6314     kernel32:KERNEL32.dll
 0004:00000318       __imp__GetLocaleInfoA@16   105b6318     kernel32:KERNEL32.dll
 0004:0000031c       __imp__EnumSystemLocalesA@8 105b631c     kernel32:KERNEL32.dll
 0004:00000320       __imp__GetUserDefaultLCID@0 105b6320     kernel32:KERNEL32.dll
 0004:00000324       __imp__GetVersionExA@4     105b6324     kernel32:KERNEL32.dll
 0004:00000328       __imp__RtlUnwind@16        105b6328     kernel32:KERNEL32.dll
 0004:0000032c       __imp__UnhandledExceptionFilter@4 105b632c     kernel32:KERNEL32.dll
 0004:00000330       __imp__CreateFileA@28      105b6330     kernel32:KERNEL32.dll
 0004:00000334       __imp__GetACP@0            105b6334     kernel32:KERNEL32.dll
 0004:00000338       __imp__GetOEMCP@0          105b6338     kernel32:KERNEL32.dll
 0004:0000033c       __imp__SetEndOfFile@4      105b633c     kernel32:KERNEL32.dll
 0004:00000340       __imp__GetLocaleInfoW@16   105b6340     kernel32:KERNEL32.dll
 0004:00000344       __imp__CompareStringA@24   105b6344     kernel32:KERNEL32.dll
 0004:00000348       __imp__CompareStringW@24   105b6348     kernel32:KERNEL32.dll
 0004:0000034c       __imp__SetEnvironmentVariableA@8 105b634c     kernel32:KERNEL32.dll
 0004:00000350       __imp__FindClose@4         105b6350     kernel32:KERNEL32.dll
 0004:00000354       __imp__FileTimeToSystemTime@8 105b6354     kernel32:KERNEL32.dll
 0004:00000358       __imp__FileTimeToLocalFileTime@8 105b6358     kernel32:KERNEL32.dll
 0004:0000035c       __imp__SetCurrentDirectoryA@4 105b635c     kernel32:KERNEL32.dll
 0004:00000360       \177KERNEL32_NULL_THUNK_DATA 105b6360     kernel32:KERNEL32.dll
 0004:00000364       __imp__SysAllocStringByteLen@8 105b6364     oleaut32:OLEAUT32.dll
 0004:00000368       \177OLEAUT32_NULL_THUNK_DATA 105b6368     oleaut32:OLEAUT32.dll
 0004:0000036c       __imp__MessageBoxA@16      105b636c     user32:USER32.dll
 0004:00000370       \177USER32_NULL_THUNK_DATA 105b6370     user32:USER32.dll

 entry point at        0001:000250b0

 Static symbols

 0001:0003cdc1       returndi                   1003ddc1 f   LIBCMTD:strrchr.obj
 0001:0003cdc3       toend                      1003ddc3 f   LIBCMTD:strrchr.obj
 0001:0003c550       _IsRootUNCName             1003d550 f   LIBCMTD:stat.obj
 0001:0003bb30       _findenv                   1003cb30 f   LIBCMTD:setenv.obj
 0001:0003bbb0       _copy_environ              1003cbb0 f   LIBCMTD:setenv.obj
 0001:0003b800       _strncnt                   1003c800 f   LIBCMTD:a_cmp.obj
 0001:0003aacc       lupe                       1003bacc f   LIBCMTD:strnicmp.obj
 0001:0003aae4       skip1                      1003bae4 f   LIBCMTD:strnicmp.obj
 0001:0003aaee       skip2                      1003baee f   LIBCMTD:strnicmp.obj
 0001:0003aaf5       eject                      1003baf5 f   LIBCMTD:strnicmp.obj
 0001:0003aaff       differ                     1003baff f   LIBCMTD:strnicmp.obj
 0001:0003ab11       notclocale                 1003bb11 f   LIBCMTD:strnicmp.obj
 0001:0003ab25       do_lock                    1003bb25 f   LIBCMTD:strnicmp.obj
 0001:0003ab3e       end_lock                   1003bb3e f   LIBCMTD:strnicmp.obj
 0001:0003ab44       lupe2                      1003bb44 f   LIBCMTD:strnicmp.obj
 0001:0003ab6f       eject2                     1003bb6f f   LIBCMTD:strnicmp.obj
 0001:0003ab75       differ2                    1003bb75 f   LIBCMTD:strnicmp.obj
 0001:0003ab7e       toend2                     1003bb7e f   LIBCMTD:strnicmp.obj
 0001:0003ab8c       do_unlock                  1003bb8c f   LIBCMTD:strnicmp.obj
 0001:0003ab9a       end_unlock                 1003bb9a f   LIBCMTD:strnicmp.obj
 0001:0003ab9a       toend                      1003bb9a f   LIBCMTD:strnicmp.obj
 0001:000398a0       __expandtime               1003a8a0 f   LIBCMTD:strftime.obj
 0001:00039ec0       __store_str                1003aec0 f   LIBCMTD:strftime.obj
 0001:00039f10       __store_num                1003af10 f   LIBCMTD:strftime.obj
 0001:00039fc0       __store_number             1003afc0 f   LIBCMTD:strftime.obj
 0001:0003a070       __store_winword            1003b070 f   LIBCMTD:strftime.obj
 0001:00037f30       _getSystemCP               10038f30 f   LIBCMTD:mbctype.obj
 0001:00037f90       _CPtoLCID                  10038f90 f   LIBCMTD:mbctype.obj
 0001:00038010       _setSBCS                   10039010 f   LIBCMTD:mbctype.obj
 0001:00038090       _setSBUpLow                10039090 f   LIBCMTD:mbctype.obj
 0001:00037530       MORE32                     10038530 f   LIBCMTD:llshl.obj
 0001:0003753a       RETZERO                    1003853a f   LIBCMTD:llshl.obj
 0001:00036ef0       _xcptlookup                10037ef0 f   LIBCMTD:winxfltr.obj
 0001:00036b70       _gu_return                 10037b70 f   LIBCMTD:exsup.obj
 0001:00036b78       __unwind_handler           10037b78 f   LIBCMTD:exsup.obj
 0001:00035fc0       _TranslateName             10036fc0 f   LIBCMTD:getqloc.obj
 0001:00036050       _GetLcidFromLangCountry    10037050 f   LIBCMTD:getqloc.obj
 0001:00036110       _LangCountryEnumProc@4     10037110 f   LIBCMTD:getqloc.obj
 0001:00036440       _GetLcidFromLanguage       10037440 f   LIBCMTD:getqloc.obj
 0001:000364c0       _LanguageEnumProc@4        100374c0 f   LIBCMTD:getqloc.obj
 0001:000365e0       _GetLcidFromCountry        100375e0 f   LIBCMTD:getqloc.obj
 0001:00036630       _CountryEnumProc@4         10037630 f   LIBCMTD:getqloc.obj
 0001:000366e0       _GetLcidFromDefault        100376e0 f   LIBCMTD:getqloc.obj
 0001:00036710       _ProcessCodePage           10037710 f   LIBCMTD:getqloc.obj
 0001:000367b0       _TestDefaultCountry        100377b0 f   LIBCMTD:getqloc.obj
 0001:00036800       _TestDefaultLanguage       10037800 f   LIBCMTD:getqloc.obj
 0001:00036890       _IsThisWindowsNT           10037890 f   LIBCMTD:getqloc.obj
 0001:000368e0       _crtGetLocaleInfoA@16      100378e0 f   LIBCMTD:getqloc.obj
 0001:00036a70       _LcidFromHexString         10037a70 f   LIBCMTD:getqloc.obj
 0001:00036af0       _GetPrimaryLen             10037af0 f   LIBCMTD:getqloc.obj
 0001:00035d94       listnext                   10036d94 f   LIBCMTD:strpbrk.obj
 0001:00035da1       listdone                   10036da1 f   LIBCMTD:strpbrk.obj
 0001:00035da4       dstnext                    10036da4 f   LIBCMTD:strpbrk.obj
 0001:00035db4       dstdone                    10036db4 f   LIBCMTD:strpbrk.obj
 0001:00035d5a       okay                       10036d5a f   LIBCMTD:strncmp.obj
 0001:00035d6d       firstbig                   10036d6d f   LIBCMTD:strncmp.obj
 0001:00035d6f       lastbig                    10036d6f f   LIBCMTD:strncmp.obj
 0001:00035d71       toend                      10036d71 f   LIBCMTD:strncmp.obj
 0001:00035660       __get_lc_lconv             10036660 f   LIBCMTD:initmon.obj
 0001:00035870       _fix_grouping              10036870 f   LIBCMTD:initmon.obj
 0001:000358f0       __free_lc_lconv            100368f0 f   LIBCMTD:initmon.obj
 0001:000354b0       _fix_grouping              100364b0 f   LIBCMTD:initnum.obj
 0001:00034960       __get_lc_time              10035960 f   LIBCMTD:inittime.obj
 0001:00034ef0       __free_lc_time             10035ef0 f   LIBCMTD:inittime.obj
 0001:00032c44       label0                     10033c44 f   LIBCMTD:adj_fdiv.obj
 0001:00032c4a       label1                     10033c4a f   LIBCMTD:adj_fdiv.obj
 0001:00032c4f       label2                     10033c4f f   LIBCMTD:adj_fdiv.obj
 0001:00032c55       label3                     10033c55 f   LIBCMTD:adj_fdiv.obj
 0001:00032c5a       label4                     10033c5a f   LIBCMTD:adj_fdiv.obj
 0001:00032c60       label5                     10033c60 f   LIBCMTD:adj_fdiv.obj
 0001:00032c66       label6                     10033c66 f   LIBCMTD:adj_fdiv.obj
 0001:00032c6c       label7                     10033c6c f   LIBCMTD:adj_fdiv.obj
 0001:00032c72       label8                     10033c72 f   LIBCMTD:adj_fdiv.obj
 0001:00032c8e       label9                     10033c8e f   LIBCMTD:adj_fdiv.obj
 0001:00032c93       label10                    10033c93 f   LIBCMTD:adj_fdiv.obj
 0001:00032ca9       label11                    10033ca9 f   LIBCMTD:adj_fdiv.obj
 0001:00032cae       label12                    10033cae f   LIBCMTD:adj_fdiv.obj
 0001:00032cca       label13                    10033cca f   LIBCMTD:adj_fdiv.obj
 0001:00032cda       label14                    10033cda f   LIBCMTD:adj_fdiv.obj
 0001:00032cee       label15                    10033cee f   LIBCMTD:adj_fdiv.obj
 0001:00032cfe       label16                    10033cfe f   LIBCMTD:adj_fdiv.obj
 0001:00032d1e       label17                    10033d1e f   LIBCMTD:adj_fdiv.obj
 0001:00032d23       label18                    10033d23 f   LIBCMTD:adj_fdiv.obj
 0001:00032d3d       label19                    10033d3d f   LIBCMTD:adj_fdiv.obj
 0001:00032d42       label20                    10033d42 f   LIBCMTD:adj_fdiv.obj
 0001:00032d62       label21                    10033d62 f   LIBCMTD:adj_fdiv.obj
 0001:00032d76       label22                    10033d76 f   LIBCMTD:adj_fdiv.obj
 0001:00032d8e       label23                    10033d8e f   LIBCMTD:adj_fdiv.obj
 0001:00032da2       label24                    10033da2 f   LIBCMTD:adj_fdiv.obj
 0001:00032dc2       label25                    10033dc2 f   LIBCMTD:adj_fdiv.obj
 0001:00032dc7       label26                    10033dc7 f   LIBCMTD:adj_fdiv.obj
 0001:00032de1       label27                    10033de1 f   LIBCMTD:adj_fdiv.obj
 0001:00032de6       label28                    10033de6 f   LIBCMTD:adj_fdiv.obj
 0001:00032e06       label29                    10033e06 f   LIBCMTD:adj_fdiv.obj
 0001:00032e1a       label30                    10033e1a f   LIBCMTD:adj_fdiv.obj
 0001:00032e32       label31                    10033e32 f   LIBCMTD:adj_fdiv.obj
 0001:00032e46       label32                    10033e46 f   LIBCMTD:adj_fdiv.obj
 0001:00032e66       label33                    10033e66 f   LIBCMTD:adj_fdiv.obj
 0001:00032e6b       label34                    10033e6b f   LIBCMTD:adj_fdiv.obj
 0001:00032e85       label35                    10033e85 f   LIBCMTD:adj_fdiv.obj
 0001:00032e8a       label36                    10033e8a f   LIBCMTD:adj_fdiv.obj
 0001:00032eaa       label37                    10033eaa f   LIBCMTD:adj_fdiv.obj
 0001:00032ebe       label38                    10033ebe f   LIBCMTD:adj_fdiv.obj
 0001:00032ed6       label39                    10033ed6 f   LIBCMTD:adj_fdiv.obj
 0001:00032eea       label40                    10033eea f   LIBCMTD:adj_fdiv.obj
 0001:00032f0a       label41                    10033f0a f   LIBCMTD:adj_fdiv.obj
 0001:00032f0f       label42                    10033f0f f   LIBCMTD:adj_fdiv.obj
 0001:00032f29       label43                    10033f29 f   LIBCMTD:adj_fdiv.obj
 0001:00032f2e       label44                    10033f2e f   LIBCMTD:adj_fdiv.obj
 0001:00032f4e       label45                    10033f4e f   LIBCMTD:adj_fdiv.obj
 0001:00032f62       label46                    10033f62 f   LIBCMTD:adj_fdiv.obj
 0001:00032f7a       label47                    10033f7a f   LIBCMTD:adj_fdiv.obj
 0001:00032f8e       label48                    10033f8e f   LIBCMTD:adj_fdiv.obj
 0001:00032fae       label49                    10033fae f   LIBCMTD:adj_fdiv.obj
 0001:00032fb3       label50                    10033fb3 f   LIBCMTD:adj_fdiv.obj
 0001:00032fcd       label51                    10033fcd f   LIBCMTD:adj_fdiv.obj
 0001:00032fd2       label52                    10033fd2 f   LIBCMTD:adj_fdiv.obj
 0001:00032ff2       label53                    10033ff2 f   LIBCMTD:adj_fdiv.obj
 0001:00033006       label54                    10034006 f   LIBCMTD:adj_fdiv.obj
 0001:0003301e       label55                    1003401e f   LIBCMTD:adj_fdiv.obj
 0001:00033032       label56                    10034032 f   LIBCMTD:adj_fdiv.obj
 0001:00033052       label57                    10034052 f   LIBCMTD:adj_fdiv.obj
 0001:00033057       label58                    10034057 f   LIBCMTD:adj_fdiv.obj
 0001:00033071       label59                    10034071 f   LIBCMTD:adj_fdiv.obj
 0001:00033076       label60                    10034076 f   LIBCMTD:adj_fdiv.obj
 0001:00033096       label61                    10034096 f   LIBCMTD:adj_fdiv.obj
 0001:000330aa       label62                    100340aa f   LIBCMTD:adj_fdiv.obj
 0001:000330c2       label63                    100340c2 f   LIBCMTD:adj_fdiv.obj
 0001:00031900       LeadUp1                    10032900 f   LIBCMTD:memmove.obj
 0001:0003192c       LeadUp2                    1003292c f   LIBCMTD:memmove.obj
 0001:00031950       LeadUp3                    10032950 f   LIBCMTD:memmove.obj
 0001:000319cf       UnwindUp0                  100329cf f   LIBCMTD:memmove.obj
 0001:000319bc       UnwindUp1                  100329bc f   LIBCMTD:memmove.obj
 0001:000319b4       UnwindUp2                  100329b4 f   LIBCMTD:memmove.obj
 0001:000319ac       UnwindUp3                  100329ac f   LIBCMTD:memmove.obj
 0001:000319a4       UnwindUp4                  100329a4 f   LIBCMTD:memmove.obj
 0001:0003199c       UnwindUp5                  1003299c f   LIBCMTD:memmove.obj
 0001:00031994       UnwindUp6                  10032994 f   LIBCMTD:memmove.obj
 0001:0003198c       UnwindUp7                  1003298c f   LIBCMTD:memmove.obj
 0001:000319e8       TrailUp0                   100329e8 f   LIBCMTD:memmove.obj
 0001:000319f0       TrailUp1                   100329f0 f   LIBCMTD:memmove.obj
 0001:000319fc       TrailUp2                   100329fc f   LIBCMTD:memmove.obj
 0001:00031a10       TrailUp3                   10032a10 f   LIBCMTD:memmove.obj
 0001:00031a88       LeadDown1                  10032a88 f   LIBCMTD:memmove.obj
 0001:00031aa8       LeadDown2                  10032aa8 f   LIBCMTD:memmove.obj
 0001:00031ad0       LeadDown3                  10032ad0 f   LIBCMTD:memmove.obj
 0001:00031b24       UnwindDown7                10032b24 f   LIBCMTD:memmove.obj
 0001:00031b2c       UnwindDown6                10032b2c f   LIBCMTD:memmove.obj
 0001:00031b34       UnwindDown5                10032b34 f   LIBCMTD:memmove.obj
 0001:00031b3c       UnwindDown4                10032b3c f   LIBCMTD:memmove.obj
 0001:00031b44       UnwindDown3                10032b44 f   LIBCMTD:memmove.obj
 0001:00031b4c       UnwindDown2                10032b4c f   LIBCMTD:memmove.obj
 0001:00031b54       UnwindDown1                10032b54 f   LIBCMTD:memmove.obj
 0001:00031b67       UnwindDown0                10032b67 f   LIBCMTD:memmove.obj
 0001:00031b80       TrailDown0                 10032b80 f   LIBCMTD:memmove.obj
 0001:00031b88       TrailDown1                 10032b88 f   LIBCMTD:memmove.obj
 0001:00031b98       TrailDown2                 10032b98 f   LIBCMTD:memmove.obj
 0001:00031bac       TrailDown3                 10032bac f   LIBCMTD:memmove.obj
 0001:000318b0       CopyUp                     100328b0 f   LIBCMTD:memmove.obj
 0001:000318cc       CopyLeadUp                 100328cc f   LIBCMTD:memmove.obj
 0001:000318e4       ByteCopyUp                 100328e4 f   LIBCMTD:memmove.obj
 0001:000318ec       CopyUnwindUp               100328ec f   LIBCMTD:memmove.obj
 0001:00031a28       CopyDown                   10032a28 f   LIBCMTD:memmove.obj
 0001:00031a50       CopyUnwindDown             10032a50 f   LIBCMTD:memmove.obj
 0001:00031a5c       CopyLeadDown               10032a5c f   LIBCMTD:memmove.obj
 0001:00031a74       ByteCopyDown               10032a74 f   LIBCMTD:memmove.obj
 0001:00030fe0       _parse_cmdline             10031fe0 f   LIBCMTD:stdargv.obj
 0001:000302d0       __tzset_lk                 100312d0 f   LIBCMTD:tzset.obj
 0001:000306b0       __isindst_lk               100316b0 f   LIBCMTD:tzset.obj
 0001:000309b0       _cvtdate                   100319b0 f   LIBCMTD:tzset.obj
 0001:0002f2b1       L1                         100302b1 f   LIBCMTD:ullrem.obj
 0001:0002f2bf       L3                         100302bf f   LIBCMTD:ullrem.obj
 0001:0002f2ea       L4                         100302ea f   LIBCMTD:ullrem.obj
 0001:0002f2f2       L5                         100302f2 f   LIBCMTD:ullrem.obj
 0001:0002f301       L2                         10030301 f   LIBCMTD:ullrem.obj
 0001:0002f242       L1                         10030242 f   LIBCMTD:ulldiv.obj
 0001:0002f250       L3                         10030250 f   LIBCMTD:ulldiv.obj
 0001:0002f27e       L4                         1003027e f   LIBCMTD:ulldiv.obj
 0001:0002f27f       L5                         1003027f f   LIBCMTD:ulldiv.obj
 0001:0002f283       L2                         10030283 f   LIBCMTD:ulldiv.obj
 0001:0002e769       hard                       1002f769 f   LIBCMTD:llmul.obj
 0001:0002e630       __hextodec                 1002f630 f   LIBCMTD:input.obj
 0001:0002e690       __inc                      1002f690 f   LIBCMTD:input.obj
 0001:0002e6f0       __un_inc                   1002f6f0 f   LIBCMTD:input.obj
 0001:0002e710       __whiteout                 1002f710 f   LIBCMTD:input.obj
 0001:0002cef0       _ctrlevent_capture@4       1002def0 f   LIBCMTD:winsig.obj
 0001:0002d1d0       _siglookup                 1002e1d0 f   LIBCMTD:winsig.obj
 0001:0002c250       _strncnt                   1002d250 f   LIBCMTD:a_map.obj
 0001:0002b8e0       __setlocale_set_cat        1002c8e0 f   LIBCMTD:setlocal.obj
 0001:0002ba80       __setlocale_get_all        1002ca80 f   LIBCMTD:setlocal.obj
 0001:0002a660       __get_fname                1002b660 f   LIBCMTD:fpexcept.obj
 0001:000292a1       fFEXP                      1002a2a1 f   LIBCMTD:87tran.obj
 0001:000293e1       _rtforexpinf               1002a3e1 f   LIBCMTD:87tran.obj
 0001:00028ea0       _write_char                10029ea0 f   LIBCMTD:output.obj
 0001:00028f20       _write_multi_char          10029f20 f   LIBCMTD:output.obj
 0001:00028f60       _write_string              10029f60 f   LIBCMTD:output.obj
 0001:00028fb0       _get_int_arg               10029fb0 f   LIBCMTD:output.obj
 0001:00028fd0       _get_int64_arg             10029fd0 f   LIBCMTD:output.obj
 0001:00028ff0       _get_short_arg             10029ff0 f   LIBCMTD:output.obj
 0001:00027ad0       __cftoe2                   10028ad0 f   LIBCMTD:cvt.obj
 0001:00027cb0       __cftof2                   10028cb0 f   LIBCMTD:cvt.obj
 0001:00027f40       __shift                    10028f40 f   LIBCMTD:cvt.obj
 0001:00025443       adjust_loop                10026443 f   LIBCMTD:memset.obj
 0001:00025449       dwords                     10026449 f   LIBCMTD:memset.obj
 0001:00025463       main_loop_tail             10026463 f   LIBCMTD:memset.obj
 0001:00025467       tail                       10026467 f   LIBCMTD:memset.obj
 0001:0002546d       finish                     1002646d f   LIBCMTD:memset.obj
 0001:00025473       toend                      10026473 f   LIBCMTD:memset.obj
 0001:00024cd0       _store_dt                  10025cd0 f   LIBCMTD:asctime.obj
 0001:000249d0       _flsall                    100259d0 f   LIBCMTD:fflush.obj
 0001:00024834       listnext                   10025834 f   LIBCMTD:strcspn.obj
 0001:00024841       listdone                   10025841 f   LIBCMTD:strcspn.obj
 0001:00024848       dstnext                    10025848 f   LIBCMTD:strcspn.obj
 0001:00024856       dstdone                    10025856 f   LIBCMTD:strcspn.obj
 0001:000244f0       _$$$00001                  100254f0 f   LIBCMTD:strchr.obj
 0001:00024518       str_misaligned             10025518 f   LIBCMTD:strchr.obj
 0001:0002452b       main_loop_start            1002552b f   LIBCMTD:strchr.obj
 0001:00024536       main_loop                  10025536 f   LIBCMTD:strchr.obj
 0001:00024572       retnull                    10025572 f   LIBCMTD:strchr.obj
 0001:00024574       retnull_bx                 10025574 f   LIBCMTD:strchr.obj
 0001:00024578       chr_is_found               10025578 f   LIBCMTD:strchr.obj
 0001:000245a0       byte_3                     100255a0 f   LIBCMTD:strchr.obj
 0001:000245a7       byte_2                     100255a7 f   LIBCMTD:strchr.obj
 0001:000245ae       byte_1                     100255ae f   LIBCMTD:strchr.obj
 0001:000245b5       byte_0                     100255b5 f   LIBCMTD:strchr.obj
 0001:000244f0       found_bx                   100254f0 f   LIBCMTD:strchr.obj
 0001:00024488       findnext                   10025488 f   LIBCMTD:strstr.obj
 0001:00024499       loop_start                 10025499 f   LIBCMTD:strstr.obj
 0001:0002449c       in_loop                    1002549c f   LIBCMTD:strstr.obj
 0001:000244a4       not_found                  100254a4 f   LIBCMTD:strstr.obj
 0001:000244aa       first_char_found           100254aa f   LIBCMTD:strstr.obj
 0001:000244b1       two_first_chars_equal      100254b1 f   LIBCMTD:strstr.obj
 0001:000244b4       compare_loop               100254b4 f   LIBCMTD:strstr.obj
 0001:000244d7       strchr_call                100254d7 f   LIBCMTD:strstr.obj
 0001:000244e3       match                      100254e3 f   LIBCMTD:strstr.obj
 0001:000244ea       empty_str2                 100254ea f   LIBCMTD:strstr.obj
 0001:00024394       src_misaligned             10025394 f   LIBCMTD:strncpy.obj
 0001:000243b0       tail_loop_start            100253b0 f   LIBCMTD:strncpy.obj
 0001:000243b5       copy_tail_loop             100253b5 f   LIBCMTD:strncpy.obj
 0001:000243c2       fill_tail_end1             100253c2 f   LIBCMTD:strncpy.obj
 0001:000243ca       align_dest                 100253ca f   LIBCMTD:strncpy.obj
 0001:000243d2       dest_align_loop            100253d2 f   LIBCMTD:strncpy.obj
 0001:000243e4       dest_align_loop_end        100253e4 f   LIBCMTD:strncpy.obj
 0001:000243eb       finish_loop                100253eb f   LIBCMTD:strncpy.obj
 0001:000243ee       fill_tail_zero_bytes       100253ee f   LIBCMTD:strncpy.obj
 0001:000243f3       finish                     100253f3 f   LIBCMTD:strncpy.obj
 0001:000243f9       main_loop                  100253f9 f   LIBCMTD:strncpy.obj
 0001:00024401       main_loop_entrance         10025401 f   LIBCMTD:strncpy.obj
 0001:00024437       byte_2                     10025437 f   LIBCMTD:strncpy.obj
 0001:00024441       byte_1                     10025441 f   LIBCMTD:strncpy.obj
 0001:0002444b       byte_0                     1002544b f   LIBCMTD:strncpy.obj
 0001:0002444f       fill_with_EOS_dwords       1002544f f   LIBCMTD:strncpy.obj
 0001:00024457       fill_dwords_with_EOS       10025457 f   LIBCMTD:strncpy.obj
 0001:00024459       fill_with_EOS_loop         10025459 f   LIBCMTD:strncpy.obj
 0001:00024461       fill_tail                  10025461 f   LIBCMTD:strncpy.obj
 0001:00024466       fill_tail_end              10025466 f   LIBCMTD:strncpy.obj
 0001:000242bc       chk_null                   100252bc f   LIBCMTD:stricmp.obj
 0001:000242ee       done                       100252ee f   LIBCMTD:stricmp.obj
 0001:000242f3       notclocale                 100252f3 f   LIBCMTD:stricmp.obj
 0001:00024307       do_lock                    10025307 f   LIBCMTD:stricmp.obj
 0001:0002431c       end_lock                   1002531c f   LIBCMTD:stricmp.obj
 0001:00024324       chk_null2                  10025324 f   LIBCMTD:stricmp.obj
 0001:0002434f       done2                      1002534f f   LIBCMTD:stricmp.obj
 0001:0002435f       do_unlock                  1002535f f   LIBCMTD:stricmp.obj
 0001:00024369       end_unlock                 10025369 f   LIBCMTD:stricmp.obj
 0001:0002436b       doret                      1002536b f   LIBCMTD:stricmp.obj
 0001:00023d10       _xtoa                      10024d10 f   LIBCMTD:xtoa.obj
 0001:00023e90       _x64toa@20                 10024e90 f   LIBCMTD:xtoa.obj
 0001:0002358b       front_misaligned           1002458b f   LIBCMTD:strncat.obj
 0001:0002359a       find_end_of_front_string_loop 1002459a f   LIBCMTD:strncat.obj
 0001:000235cb       start_byte_3               100245cb f   LIBCMTD:strncat.obj
 0001:000235ce       start_byte_2               100245ce f   LIBCMTD:strncat.obj
 0001:000235d3       start_byte_1               100245d3 f   LIBCMTD:strncat.obj
 0001:000235d8       start_byte_0               100245d8 f   LIBCMTD:strncat.obj
 0001:000235db       copy_start                 100245db f   LIBCMTD:strncat.obj
 0001:000235f0       back_misaligned            100245f0 f   LIBCMTD:strncat.obj
 0001:0002360c       tail_loop_start            1002460c f   LIBCMTD:strncat.obj
 0001:00023613       tail_loop                  10024613 f   LIBCMTD:strncat.obj
 0001:00023620       empty_counter              10024620 f   LIBCMTD:strncat.obj
 0001:00023622       finish1                    10024622 f   LIBCMTD:strncat.obj
 0001:00023624       finish                     10024624 f   LIBCMTD:strncat.obj
 0001:0002362a       byte_0                     1002462a f   LIBCMTD:strncat.obj
 0001:00023634       main_loop                  10024634 f   LIBCMTD:strncat.obj
 0001:0002363c       main_loop_entrance         1002463c f   LIBCMTD:strncat.obj
 0001:0002366e       byte_3                     1002466e f   LIBCMTD:strncat.obj
 0001:00023678       byte_2                     10024678 f   LIBCMTD:strncat.obj
 0001:00023688       byte_1                     10024688 f   LIBCMTD:strncat.obj
 0001:00023260       _CrtMessageWindow          10024260 f   LIBCMTD:dbgrpt.obj
 0001:00022420       __abstract_cw              10023420 f   LIBCMTD:ieee87.obj
 0001:000225a0       __hw_cw                    100235a0 f   LIBCMTD:ieee87.obj
 0001:00022700       __abstract_sw              10023700 f   LIBCMTD:ieee87.obj
 0001:000221d0       _doexit                    100231d0 f   LIBCMTD:crt0dat.obj
 0001:000222e0       __initterm                 100232e0 f   LIBCMTD:crt0dat.obj
 0001:00021240       _$$$00001                  10022240 f   LIBCMTD:chkstk.obj
 0001:0002124c       probepages                 1002224c f   LIBCMTD:chkstk.obj
 0001:00021260       lastpage                   10022260 f   LIBCMTD:chkstk.obj
 0001:00020ff0       dodwords                   10021ff0 f   LIBCMTD:strcmp.obj
 0001:00021020       doneeq                     10022020 f   LIBCMTD:strcmp.obj
 0001:00021024       donene                     10022024 f   LIBCMTD:strcmp.obj
 0001:0002102c       dopartial                  1002202c f   LIBCMTD:strcmp.obj
 0001:00021048       doword                     10022048 f   LIBCMTD:strcmp.obj
 0001:00020f6c       str_misaligned             10021f6c f   LIBCMTD:strlen.obj
 0001:00020f80       main_loop                  10021f80 f   LIBCMTD:strlen.obj
 0001:00020fb3       byte_3                     10021fb3 f   LIBCMTD:strlen.obj
 0001:00020fbd       byte_2                     10021fbd f   LIBCMTD:strlen.obj
 0001:00020fc7       byte_1                     10021fc7 f   LIBCMTD:strlen.obj
 0001:00020fd1       byte_0                     10021fd1 f   LIBCMTD:strlen.obj
 0001:0001f410       _realloc_help              10020410 f   LIBCMTD:dbgheap.obj
 0001:00020050       _CheckBytes                10021050 f   LIBCMTD:dbgheap.obj
 0001:00020c40       __printMemBlockData        10021c40 f   LIBCMTD:dbgheap.obj
 0001:0001ee4d       dest_misaligned            1001fe4d f   LIBCMTD:strcat.obj
 0001:0001ee5c       find_end_of_dest_string_loop 1001fe5c f   LIBCMTD:strcat.obj
 0001:0001ee8f       start_byte_3               1001fe8f f   LIBCMTD:strcat.obj
 0001:0001ee94       start_byte_2               1001fe94 f   LIBCMTD:strcat.obj
 0001:0001ee99       start_byte_1               1001fe99 f   LIBCMTD:strcat.obj
 0001:0001ee9e       start_byte_0               1001fe9e f   LIBCMTD:strcat.obj
 0001:0001eead       src_misaligned             1001fead f   LIBCMTD:strcat.obj
 0001:0001eec1       main_loop                  1001fec1 f   LIBCMTD:strcat.obj
 0001:0001eec6       main_loop_entrance         1001fec6 f   LIBCMTD:strcat.obj
 0001:0001eefa       byte_3                     1001fefa f   LIBCMTD:strcat.obj
 0001:0001ef02       byte_2                     1001ff02 f   LIBCMTD:strcat.obj
 0001:0001ef0f       byte_1                     1001ff0f f   LIBCMTD:strcat.obj
 0001:0001ef18       byte_0                     1001ff18 f   LIBCMTD:strcat.obj
 0001:0001eea1       copy_start                 1001fea1 f   LIBCMTD:strcat.obj
 0001:0001eb60       LeadUp1                    1001fb60 f   LIBCMTD:memcpy.obj
 0001:0001eb8c       LeadUp2                    1001fb8c f   LIBCMTD:memcpy.obj
 0001:0001ebb0       LeadUp3                    1001fbb0 f   LIBCMTD:memcpy.obj
 0001:0001ec2f       UnwindUp0                  1001fc2f f   LIBCMTD:memcpy.obj
 0001:0001ec1c       UnwindUp1                  1001fc1c f   LIBCMTD:memcpy.obj
 0001:0001ec14       UnwindUp2                  1001fc14 f   LIBCMTD:memcpy.obj
 0001:0001ec0c       UnwindUp3                  1001fc0c f   LIBCMTD:memcpy.obj
 0001:0001ec04       UnwindUp4                  1001fc04 f   LIBCMTD:memcpy.obj
 0001:0001ebfc       UnwindUp5                  1001fbfc f   LIBCMTD:memcpy.obj
 0001:0001ebf4       UnwindUp6                  1001fbf4 f   LIBCMTD:memcpy.obj
 0001:0001ebec       UnwindUp7                  1001fbec f   LIBCMTD:memcpy.obj
 0001:0001ec48       TrailUp0                   1001fc48 f   LIBCMTD:memcpy.obj
 0001:0001ec50       TrailUp1                   1001fc50 f   LIBCMTD:memcpy.obj
 0001:0001ec5c       TrailUp2                   1001fc5c f   LIBCMTD:memcpy.obj
 0001:0001ec70       TrailUp3                   1001fc70 f   LIBCMTD:memcpy.obj
 0001:0001ece8       LeadDown1                  1001fce8 f   LIBCMTD:memcpy.obj
 0001:0001ed08       LeadDown2                  1001fd08 f   LIBCMTD:memcpy.obj
 0001:0001ed30       LeadDown3                  1001fd30 f   LIBCMTD:memcpy.obj
 0001:0001ed84       UnwindDown7                1001fd84 f   LIBCMTD:memcpy.obj
 0001:0001ed8c       UnwindDown6                1001fd8c f   LIBCMTD:memcpy.obj
 0001:0001ed94       UnwindDown5                1001fd94 f   LIBCMTD:memcpy.obj
 0001:0001ed9c       UnwindDown4                1001fd9c f   LIBCMTD:memcpy.obj
 0001:0001eda4       UnwindDown3                1001fda4 f   LIBCMTD:memcpy.obj
 0001:0001edac       UnwindDown2                1001fdac f   LIBCMTD:memcpy.obj
 0001:0001edb4       UnwindDown1                1001fdb4 f   LIBCMTD:memcpy.obj
 0001:0001edc7       UnwindDown0                1001fdc7 f   LIBCMTD:memcpy.obj
 0001:0001ede0       TrailDown0                 1001fde0 f   LIBCMTD:memcpy.obj
 0001:0001ede8       TrailDown1                 1001fde8 f   LIBCMTD:memcpy.obj
 0001:0001edf8       TrailDown2                 1001fdf8 f   LIBCMTD:memcpy.obj
 0001:0001ee0c       TrailDown3                 1001fe0c f   LIBCMTD:memcpy.obj
 0001:0001eb10       CopyUp                     1001fb10 f   LIBCMTD:memcpy.obj
 0001:0001eb2c       CopyLeadUp                 1001fb2c f   LIBCMTD:memcpy.obj
 0001:0001eb44       ByteCopyUp                 1001fb44 f   LIBCMTD:memcpy.obj
 0001:0001eb4c       CopyUnwindUp               1001fb4c f   LIBCMTD:memcpy.obj
 0001:0001ec88       CopyDown                   1001fc88 f   LIBCMTD:memcpy.obj
 0001:0001ecb0       CopyUnwindDown             1001fcb0 f   LIBCMTD:memcpy.obj
 0001:0001ecbc       CopyLeadDown               1001fcbc f   LIBCMTD:memcpy.obj
 0001:0001ecd4       ByteCopyDown               1001fcd4 f   LIBCMTD:memcpy.obj

FIXUPS: 21d3a 34 39 16 7c 2a 28 fffff5a3 67 47 7e 17 1c 4c 15 4d 5a 11
FIXUPS: 21702 1b ec 33 49 10e 1a a1 20 31 28 4f 3a 31 18 45 18 f 1a 88
FIXUPS: 21d10 fffff0a3 2b 1c 2c 1c 16 c 1f 62 51 1f 45 c 5a 1f 93 57 8
FIXUPS: 21162 2b 28 28 28 16 94 2b 32 2b 39 20 49 33 fffff2d9 b3 19 59
FIXUPS: 20869 54 85 15 1e d 18 20 1c 10 a 24 1c 50 1d 1f 62 34 3b 2b 3b
FIXUPS: 20c38 2b c 41 6b 56 36 fffff215 1d 25 2f 1c 69 28 5f 54 21 128
FIXUPS: 202f4 1b 33 2f 51 15 1e d 35 21 1b 1c 6b 28 32 4f 18 1f 5b 66 25
FIXUPS: 2240a 1d 29 25 ffffff01 a ffffff27 12 3a 10 29 2a 10 fffffe06 2a
FIXUPS: 221db 4b fffffe70 2a 1e c 17 13 c fffffd97 5 a ffffe06e 26 28 15
FIXUPS: 1ffaf 2add fffffdfe 3f 11 fffffe11 16 3e 39 14 2c 3f 3e 2b fffffc7e
FIXUPS: 224f2 1b 25 14 10 d 10 b 3d 3b 14 60 7 14 7 fffffd15 2b 28 b12
FIXUPS: 22f1e a6 10 31 2c 44 2c fffffd3f 18 44 15 27 fffffdb6 18 10 f 39
FIXUPS: 22cfd fffffde5 2e 28 1e 2c 12 21 20 25 fffffd4f 1c 13 6d dd2 12
FIXUPS: 237e1 16 10 1c 31 10 fffffabd 21 21 24 2a 19 c fffffd57 12 1d 20
FIXUPS: 2319a 20 1b 77 12 13 19 b 31 10 fffffdee 11 fffffdfc 146a 26 19d
FIXUPS: 24516 19 19 a fffff638 85 69 33 8c 34 fffffcc4 29 77 20 31 16 10
FIXUPS: 23b61 fffffdd5 1b d 18 14 f fffffefd 2a 18 14 f 1003 fffffdc7 31
FIXUPS: 24702 f 4c 27 f f 27 fffff710 10b 2a 18 38 16 2b 14 2e 18 18 7a
FIXUPS: 241ee 34 47 1e d 2f 15 11 1d 21 bb3 17 b5 fffffc61 12 2c 10 1d
FIXUPS: 24c9c 10 fffffeab 12 2a 10 1b 2a 10 fffffeaf 12 2a 10 1b 2a 10
FIXUPS: 24a72 fffffd9e 2e 2a 2e 14 22 f d3e 1c 13 6d a7 fffffd83 fffffe32
FIXUPS: 25335 a 23 fffffe70 1c 11 13 8 a f 25 11 13 c fffffd31 18 f af
FIXUPS: 25109 6a fffffb6b 18 11b 21 4b ea9 2d 18 1c 1e f fffffd63 1c b6
FIXUPS: 25c0e 25 24 30 1e fffffbc8 e c f 22 28 78 6e 21 68 33 40 25 f fffffcd0
FIXUPS: 257e1 15 12 d0a c d fffffdd5 60 13 a 34 a fffffe3c 1b fffffd79
FIXUPS: 25fe9 9 17 a 5 5 5 3d 7 f 5 5 5 15 75 1e 1e 1d 68 9 6c6 8 12 27
FIXUPS: 268ea 2a ffffff1b c 19 a c fffffdd7 17 22 c 2c 18 3f 10 70 10 a
FIXUPS: 267af 53 fffffd94 c 2f 14 f fffffe9a 2b 29 2394 19f 20 3a 2f 1a
FIXUPS: 28b00 60 ff 27 16 94 35 68 12 34 33 48 3c 36 1c 1a 18 17 fffff8c5
FIXUPS: 2877e ffffffcb ffffe999 191 19 de0 ffffe8e1 2aa3 133 18 21 34 30
FIXUPS: 29668 e2 142 ba 31 1e 2a 1b 11d 25 122 1e 30 75 32 22 26 170 55
FIXUPS: 29f93 ffffeffd 21 7e c8 33 fffff724 2df1 d fffff230 3d 5e 133 38
FIXUPS: 2a83c fffffefe 5e 7 fffffb31 12 1d 5 55 3c 7 2f b2 15 fffffb9e
FIXUPS: 2a138 10 3e 54 4d 28 fffff017 34 24 cb 1772 a 14 52 a 14 2a 2c
FIXUPS: 2abeb 3a e 11 2f 44 c 3e e 11 182 1d8 1ac 2b 33 1b6 f4 27 36 44
FIXUPS: 2b5db 10 16 c 18f4 2b fffff526 36 fffff9c8 21 2b 28 1e 2c 38 16
FIXUPS: 2bf7e 23 ac 4e 23 125 1c 2b 37 1d 2b 13 b7 fffff914 c8 1d 27 fffffa27
FIXUPS: 2b97d 17 f30 43 26 c 47 1b 40 50 31 4c 4e 1a 25 2a 9b 19 1b 26
FIXUPS: 2cc82 1b 14 19 19 11 67 27 40 2a 45 2e 33 4a b01 1f fffffb7c 13
FIXUPS: 2d673 29a fffffa83 82 2a fffffe82 37 fffffce0 98 f6 fffff3ac 43
FIXUPS: 2c5de 48 51 19 2f 2d 39 21 5a 38 47 17 31 11 1a 22 159d 58 50 44
FIXUPS: 2df5a 16 c4 13 28 16 1d a 96 f2 10 fffff7d1 2a 2e 37 81 2a 21 62
FIXUPS: 2dbec 1a 1a 1a 1a 1d e fffffcc1 5c 1571 24 e5 39 76 4a 3d 76 6c
FIXUPS: 2f290 20 77 27 70 46 31 35 44 35 1c 147 8a 32 24 f ffffe5c2 43
FIXUPS: 2dd43 82 24 27 2a 43c 2d 47 4a 9 19 a4 1aa 1d 118 1de 32 97 1f
FIXUPS: 2e9f7 a8 28 33 43 64 46 41 12 2f 4d 23 10 70 24 5a 46 2f 136f 45
FIXUPS: 2ffc0 60 31 2a a7 fffffb34 2a 2a 227 fffffccc 3a fffffeab b 14
FIXUPS: 2faad f 1e 1b c 10 29 2d fffffd4f 2a 44 4b fffffe4d 2a 44 4b 15ce
FIXUPS: 30e64 10 fffff98d 82 2f 83 7d 11 b8 b d6 b 65 b 7c 30 e b 18 32
FIXUPS: 30d2b 2f fffff5e8 b 14 14 f 137 b 23 2c5 e41 6c 2c c d b0 53 66
FIXUPS: 3185c 25 23 fffff91e 17 2e 2d a 16 fffffc5e b 14 14 f 6d 1a2 b
FIXUPS: 3111e 3e b fffffc5e 31 21 1f 1183 fffffe07 36 28 1f 29 26 17 12
FIXUPS: 31ed1 fffffcf5 29 fffff690 11 14 12 8 7 1b 2b 17 150 e 15 18 c
FIXUPS: 314d1 17 a 15 3b 5b 1e24 20 68 82 10 30 10 30 10 fffff78c 1d fffff950
FIXUPS: 32670 77 3a 59 15 17 1d 14 13 14 1a 19 fffffcd3 4a 94 2b fffff903
FIXUPS: 31f66 1e 13 1a9e f 27 11 4c fffffe10 21 13 50 5e fffffeac fffffe19
FIXUPS: 336a7 29 ffffff78 17 fffff815 41 8c 14 26f 19 1c 13 2a 3a 10 13
FIXUPS: 332a9 26 1e 41 1de9 eb 1c8 8c 152 6d 238 13 fffff1f1 2b 28 2c 3a
FIXUPS: 34b30 1c 5e 25 28 31 43 28 31 16 14 fffffc53 72 13 24 17 fffff001
FIXUPS: 33a0d 14 25b2 11 11 11 11 11 11 11 11 11 11 11 11 11 11 11 11 11
FIXUPS: 36105 11 14 14 14 14 14 14 14 14 14 14 14 ffffedd8 c9e 1f 1f 1f
FIXUPS: 35ce4 1f 1f 1f 1f 22 22 22 22 22 22 22 22 22 22 25 2f 11 11 11
FIXUPS: 35f4c 11 10 11 11 11 11 11 498 fffff448 1f 10 e 1e 11 25 11 5e
FIXUPS: 359c1 1f 1f 1f 1f 1c 1f 1f 1f 1f 1f 1f 1f 1f 1f 1f 1f 1f 1f 1f
FIXUPS: 35c2a 1f b16 1f 1f 1f 1f 1f 1f 1f 1f bd 11 11 11 11 11 11 fffff8b9
FIXUPS: 36250 1d 17 16 11 11 46 13 14 5b 11 10 34 30 16 5b1 1f 19 19 19
FIXUPS: 36b42 65 a6 22 17 e 15 e e e 2b 11 fffff840 1f 10 e 4c 11 4f 11
FIXUPS: 36696 1f 1f 1f 1f 17 17 91b 1d 39 6a 55 5a 62 28 2b 83 59 16 74
FIXUPS: 373f7 54 2f 51 55 1b 52 12 4b 51 52 10 93 3d 33 a3 1a 11 198 8de
FIXUPS: 38327 50 50 4d 65 60 fffffa9f 24 13 4a de 3e fffffc22 13 ffffff61
FIXUPS: 37cb8 11 2f 25 fffffe4f fffff264 29 34 35 3e 7 1c 7 1f c7 51 1629
FIXUPS: 38635 5e b a9 b c8 e b 43 c 34 c 38 65 11 11 c 23 1d 11 c 18 15
FIXUPS: 38a23 5d fffff6c7 4d 40 40 43 4d 1384 c 27 6c fffff522 c 18 15
FIXUPS: 38c27 7 114 43 7 10a 4a 7 15 5 7 e 267 35 35 1e8 fffff718 c d 3e
FIXUPS: 38b67 19 2c fffff9c8 2787 31 36 50 a 21 154 31c 20 1f0 ffffea0b
FIXUPS: 39ed8 4f 1df fffff71c 43 33 24 bd 2d 9b 32 43 c 10 c fffff969 21
FIXUPS: 3949d 35 13a c 1009 9 2c 9 2c 9 2c 9 3d 54 84 8d 7e 23 23 23 3a
FIXUPS: 3a9dd 24 51 2a 28 45 2d 2d 28 28 1c 29 41 84 3a fffff497 1b 50
FIXUPS: 3a1e2 2e 9 71 15 1b 51 9 2e 9 6e 15 37 15 1e 14 1c 1c 1c 1b 36
FIXUPS: 3a52b 9 2e 9 48 9 2e 9 1699 1f 49 11 71 17 a 40 1d c 25 13 14 fffffce5
FIXUPS: 3bb56 a 31 fffffd9b 1b 76 be fffffb61 33 2c 32 20 2e 14 1b 43 6f
FIXUPS: 3a159 2908 5a c 19 42 3c a7 19 28 c 21 fffff822 19 d9 13f 9e fffffb7e
FIXUPS: 3c2f6 10 f c6 fffffe0b fffffe5e fffffebc 43 ffffff4b fffffd54 14
FIXUPS: 3bc06 f 24 37 14ae b 1a 13 38 1c 1e 14 1e b 49 62 6b 5b 6b 69 6b
FIXUPS: 3d4e9 70 fffff75d f 58 28 29 fffffaf6 45 29 3a 40 3e 33 4b 10f9
FIXUPS: 3db0c 12 2a 13 a fffffe6a 18 11 49 8 1f f fffffe88 f 93 fffffcb7
FIXUPS: 3d667 6d 40 c4 40 76 38 fffff746 1a 15 15 15 6e c b fffc4062 f
FIXUPS: 11a8 11 1b 53 53 53 16 13 14 13 14 f 3ca97 12 d 21 14 d 2c c b
FIXUPS: 3df21 11 19 1a fffffd13 f ef fffffe79 fffffee6 fffc3f48 13 14 13
FIXUPS: 1a6b f fffffb3a fffffe8e 40 11 11 44 8 30 fffffe3c 2e c 17 fffffc71
FIXUPS: 1041 15 14 17 11 12 1d 13 14 f 11 1d 13 a30 4e6 35 8 5 5 5 fffffa06
FIXUPS: 1aff fffffb7f 23 15 14 29 13 14 f 20 c 1d 13 14 f 16 1d 13 14 f
FIXUPS: 1887 82 82 75 11b2 1a fffffb8e 5 1d4 97 fffffc88 2c 23 49 fffffa5f
FIXUPS: 2165 15f 6 1a 16 da 84 16 1d f 3e 48 a 5 47 10 fffffb49 12 12 f
FIXUPS: 2111 3c73 4a 79 1e 11 5f e 24 47 e 11 5f 3e 53 43 60 16c 129 3a
FIXUPS: 63e2 87 33 ffffcac7 21 3c 4a a5 5a 32 fffffce1 97 fffffcd0 190f
FIXUPS: 44ab 12 2e 77 741 c 84 1bd 13 13 27 7b5 11c 1d 75 12 26 30 34 17
FIXUPS: 59b7 d0 33 17 12 3c 14 1a5 28 31 e ffffe181 e 15f 2e e 30 9 5 14
FIXUPS: 40c0 5 23 17 54 67 32 31 1c 36 2f 30 31 14 7d 1e 1e 17 18 11 3b
FIXUPS: 445a 13 ffffed20 12 13 34 16 12 4c 38 2b 127 75 3b 75 5b 3c 49
FIXUPS: 36e7 2d 17 f4 6b 5c 21 d2 26 28 d5 85 b7 5 f9 97 3a2e b5 cc 26
FIXUPS: 6595 1c 101 73 85 5d e6 7b 1c d1 a1 ac 74 36 33 12 a1 42 e3 79
FIXUPS: 6fc4 127 37 42 29 fffff355 ffffcc88 12 4d06 43 13 17 1b b3 4c fffffd24
FIXUPS: 79f3 7b 2e 1c 22 22 1b 2c 21 dc fffff5d1 180 33 b1 33 46 91 ab
FIXUPS: 7640 1a c9 48 43 31 1484 46 46 46 43 46 13 14 fffff847 f c fffffed3
FIXUPS: 852b ffffff9c f c fffffe5c 7e f c fffffefa 43 fffffd84 13 17 76
FIXUPS: 818c 12 fffffbd0 97 54 12 908 16 1d 13 14 6c 15 1a 6d 15 1a 6d
FIXUPS: 8986 1a 5b 15 1a 1d 13 14 13 14 38 28 28 28 28 25 28 13 14 3c 1099
FIXUPS: 9d0f 42 46 35 2d 43 4d 19 2c 1c8 45 52 58 25 45 26 3e b4 fe 1c
FIXUPS: 8676 14 15 14 29 13 14 20 c 1d 13 e6f 4d 33 f 21 80 33 17 77 43
FIXUPS: 9843 8 10 5 14 30 18 14 4f 20 18 37 23 13 13 12 35 3e 38 cc 6f
FIXUPS: 9c44 eb4 9 20 16 fffffc68 1c 44 28 fffffceb 12 10 8 11 88 55 81
FIXUPS: a70c 26 fffffdb1 ffffff73 33 1d ffffe986 13b 10 2e1 b6 b7 ba e0
FIXUPS: 9574 44 1e57 a 43 14 a 25e e ec 35 45 138 e3 d4 17 5a 13 14 2f
FIXUPS: bcdb 1d 28 4f ffffec80 9 18 23 9 1f 15 41 9 19 21ae 1d c 3c c 1f
FIXUPS: cd1d 51 10 fffff29c 11 ffffff93 12 ffffff8e 12 ffffff2a a5 ffffff34
FIXUPS: be33 ffffed27 72 1dc a 18e 30 2e 2c 161 35 19b ce 32 1502 1d c
FIXUPS: c966 c 26 9 18 20 1d c 1d c 1d c 1d c 1d c 1d c 40 c 42 c 45 c
FIXUPS: cbfc c 42 c 1f fffff87f 1f c 1f c 40 c 1f c 1f c 46 c 3e c 4d c
FIXUPS: c706 c 5e c 47 9 18 38 23 c 4d c 24 c 1d fffff8cb 1d c 1d c 1d
FIXUPS: c237 1d c 1d c 1d c 42 c 25 c 46 c 24 9 18 2c 23 c 23 c 40 c 1f
FIXUPS: c4c9 1f 1250 10 16 78 fffff802 23 9 81 fffffdde ffffff37 11 8 5
FIXUPS: cdf4 fffff278 9 21 2f 9 9 9 16 9 18 15 9 18 15 f 16 c 1d 1b2a 1f
FIXUPS: dd25 1d 68 21 28b 8e 42 27 39 39 b9 d 5 15 21 2a ffffef8e 1d 40
FIXUPS: d313 11 11 37 113 9f 12 47 23 b1 a5 d98 53 33 c 1c 25 11 77 19
FIXUPS: e624 1c 2a 11 35 1a 11 a f fffff10f 23 12 32 19 236 4c 85 5c 1f
FIXUPS: dc67 1c 1c 1c 1648 f 1e 26 fffff929 4e 1e7 38 f7 36 ed 36 11b fffff6b1
FIXUPS: e94a 1b 18 8f 3f 15 16 1a 11 f7 fffffc33 5c 4f 28 fffffb40 12 12
FIXUPS: e478 15cd fffffa98 14 16 c 11 17 17 27 51 5e 14 1c 16 13 20 25
FIXUPS: f6d9 28 25 13 20 fffffd35 ffffffd5 ffffffc0 ffffffaf ffffffaa 19
FIXUPS: f2a2 25 1c c 883 15 23 ffffff48 ffffffc1 ffffffc6 fffffd06 9 8
FIXUPS: f7b3 8 23 12 19 14 33 2d e c e c e a 1b 2a 23 21 27 17 18 42 4d
FIXUPS: 1057a 21 1b 44 1a 1b 1a 1a 1b 1a 1a 43 45 48 45 45 16 39 24 24
FIXUPS: 108e5 64 2a 26 e fffff249 1e 15 14 1c ffffff01 13 24d 1a 3d 27
FIXUPS: fe7c 51 20 14 27 26 5b 38 3a 3a 38 35 38 3a 3a 38 3a 86 88 5e 59
FIXUPS: 103f0 21 46 6b 21 1f 50 f3e 27 24 1e 3d 8 19 3d 3f 2a ec 1c 24
FIXUPS: 11747 71 fffff280 4a 92 97 4a fffff094 11 1f f 19 1a 1b 1a 1a 1b
FIXUPS: fd7f 1a 11c2 1e 47 27 24 1e 51 1d 1e 24 1e 20 31 27 24 1e 25 47
FIXUPS: 1124e 32 1d 76 1a 1d 27 27 24 1e 40 8 2a 1d 6d3 1a c c 26 2b 2b
FIXUPS: 11bfb 4a 10 c fffffbdf 32 36 5a 17 25 11 fffff347 e6 1a 2f 1f 1d
FIXUPS: 10e2d 1e 2c 24 1e 3f 1d 22 f11 42 1e 25 63 28 5a 4d 25 36 1d 8a
FIXUPS: 1211c 1b 1b 1b 1b fffff826 11 2a 8 f 3a 12 12 3b 12 34 12 12 1d
FIXUPS: 11b2d 17cb 23 3e 7e 1f 39 43 12 ffffed4d 11 1cd 4c 64 2d 176 f4
FIXUPS: 1272d 108 4d 13 2b 27 1c 8 fffff396 2c 14 2b 34 42 42 42 1810 16
FIXUPS: 13655 28 32 3b 17 81 72 fffff3d0 11 18 2d 22 f 90 aa 22 f 52 21
FIXUPS: 12e41 4b 1c 66 42 41 29 2b 21 1e 26 bfa 1f 1f 1f 1f 1f 1f 1c 1c
FIXUPS: 13d52 1c 48 33 16 20 3b 2f 36 35 36 36 35 36 36 28 35 36 22 9d
FIXUPS: 1417f 24 fffff3e7 e35 be 1a 17 18 1c fffffcf9 b4 2f fffff55f 11
FIXUPS: 13842 14 14 4b 15 13 45 16 45 16 37 14 15 159 1f 1f 1f 1f 1f 1f
FIXUPS: 13c25 64b6 1f 69 13 ffffa3a8 23 23 14 24 11 12 1d 13 14 f 14 1d
FIXUPS: 14656 14 f 50 18 16 13 14 13 14 f fffffb91 2a 78 1a 57e7 1d 3a
FIXUPS: 19c22 24 23 16 13 16 e 22 1f 26 32 20 20 2c 1b c8 29 16 1f 6a 17
FIXUPS: 19fc6 17 3b 33 24 27 1f 18 ffffe6bd 6e 46 55 52 119 aec 11 183
FIXUPS: 19690 6f 89 1c d9 d c 31 17 16 36 e 3f 20 19 1d d c ca 3d 23 23
FIXUPS: 19b56 ffffe284 15 22 30 29 4a 1f 8 68 148 24 11 5 3b 13f 26 33
FIXUPS: 182d6 8e f f9 86 1a a8 29 d9 16 17 17 1f 23 2b fffff0eb 1b 16 5a
FIXUPS: 178ec 28 f 28 f 27 f 28 f 27 f 67 f 40 f 27 f 27 36 4f 1d f 3b
FIXUPS: 17c72 18 53 a2 2d fffff4b3 42 6c 6f 39 20 b0 14 48 16 10 14 1e
FIXUPS: 17542 29 9 29 9 29 9 36 5b 88 26 12 8 15 5f 23 42 1f f ffffefec
FIXUPS: 16856 32 2d 2d 2d 15a 84 57 14 a 39 78 2e 18 21 f 16 2d 19 25 144
FIXUPS: 16e72 f 11 c8 14d 37 6d d7 d 23 ffffebfb a2 df 10 16 f 2e f 5a
FIXUPS: 160cc 2c 16 16 18 36 51 16 2c 16 10 f 7a 19 b5 56 10a 126 10 1d
FIXUPS: 16644 f 111 ffffe76c 3e 19 14 23 18 45 19 14 32 1d 16 18 94 2a
FIXUPS: 15145 65 38 22 cf 1a 21 21 1a 45b 178 33c a6 65 47 10 4f 43d1 1d
FIXUPS: 1a204 ffffa58f 18 30 1b 17 14 13 f 23 27 21 81 9 9 9 15 9a 41 15b
FIXUPS: 14bd9 35 23 63 35 77 44 c1 13 31 5725 17 1c 18 ffffff12 8 5 49
FIXUPS: 1a571 fffffcc2 11 11 4b 19 9d 11 11 39 1e 18 14 14 16 14 f 12 14
FIXUPS: 1a480 12 f fffffd1e 12 c03 1b 20 fffffe6b 12 c fffffcf6 12 a 94
FIXUPS: 1aa50 a 82 31 11 90 12 c c 13 fffffd3f 11 fffffd7f 71 c d 180 fffffda6
FIXUPS: 1a67b f ffffff90 11 ac4 1f 15 14 1b ffffff01 2b 15 14 1b ffffff39
FIXUPS: 1b015 fffffeb9 10 14 14 13 60 15 30 fffffe81 1f 15 14 1b fffffe75
FIXUPS: 1ad41 1d 13 14 f 2b 14df 35 fffff8d7 ffffffb4 12 fffffebf 23 41
FIXUPS: 1bab6 1b 1b 3a e fffff970 1c fffffcdd 23 8 32 30 9 1c 1d 8 1d 12
FIXUPS: 1b2c6 8 3e 24 ca 28 11a5 65 8f c 18 12 b 8 fffff69a 22 15 15 2f
FIXUPS: 1be42 11 37 38 13 7d 13 1c 69 30 24 90 1c 39 3d 2a 2a 3f 3a d41
FIXUPS: 1cf87 22 11 20 15 2f 12 12 76 10 41 a fffff617 11 146 51 9 fffffa22
FIXUPS: 1c30e 109 14 68 9 8 23 a 23 a 23 59 29 476 1f 11 1f 11 21 b3 27
FIXUPS: 1cbb4 1f 19 6a 13 1e 19 42 19 3e 45 15 1f 11 28 19 59 1f 19 26
FIXUPS: 1cf01 15 20 11 2b35 13 11 ffffdace 4b 13 26 16 ffffff22 ffffff5b
FIXUPS: 1d4d2 14 16 8 fffffe23 1a 61 19 1c 26 15 40 fffff4bd 11 14 5c 8
FIXUPS: 1c9a8 11 1f 11 1f 2c7d 18 2a 18 15 18 15 18 20 18 20 18 27 20 62
FIXUPS: 1f885 1f 18 1f 18 2a 15 2a 15 20 32 1e 13 26 13 21 21 fffff85b
FIXUPS: 1f2dc 11 1b 2d 26 37 1c 2d 22 29 22 1d 2e 11 1f 11 1f 11 1b 4b
FIXUPS: 1f57c b b b 11 1d 18 26 24 20 18 fffff694 31 31 2b 26 31 35 35
FIXUPS: 1ee7c 32 2e 2e 2e 32 38 38 38 38 2e 25 25 24 25 25 24 25 25 3c
FIXUPS: 1f203 39 22 21 fffff5b0 b b b b 11 29 38 38 38 2e 20 1d 25 25 25
FIXUPS: 1ea3c 24 25 25 24 25 25 24 2e 2e 2e 2e 25 35 35 45 fffff5a5 2c
FIXUPS: 1e2ec 5c 23 74 73 12 b 77 11 93 12 11 1f 1f 29 1f 1f 1f 1f 1f 1f
FIXUPS: 1e6ed 1f 1f 24 21 21 1c 1c 55 fffff2fc 46 46 45 46 50 4c 42 2d
FIXUPS: 1dd72 2d 2d 25 1f 35 36 36 2d 96 18 37 3f 3f 3f 3c 42 4c 42 49
FIXUPS: 1e236 12 b fffff3e7 12 11 3a 20 20 39 39 39 43 24 42 42 41 20 28
FIXUPS: 1d91d 28 28 27 25 20 1d 1d 1d 1d 30 b b 20 11 11
